
obj/kernel.elf:	file format ELF32-nyuzi

Disassembly of section .text:
start_timer:
c0002000:	18 fc ff 4f 	movehi s0, 524280
c0002004:	3d 04 00 4f 	movehi s1, 61
c0002008:	00 00 09 00 	or s0, s0, 576
c000200c:	21 80 04 00 	or s1, s1, 288
c0002010:	20 00 00 88 	store_32 s1, (s0)
c0002014:	1f 00 00 f0 	ret

kernel_main:
c0002018:	de 03 fe 05 	add_i sp, sp, -128
c000201c:	1e f3 01 88 	store_32 s24, 124(sp)
c0002020:	3e e3 01 88 	store_32 s25, 120(sp)
c0002024:	5e d3 01 88 	store_32 s26, 116(sp)
c0002028:	7e c3 01 88 	store_32 s27, 112(sp)
c000202c:	9e b3 01 88 	store_32 s28, 108(sp)
c0002030:	fe a3 01 88 	store_32 ra, 104(sp)
c0002034:	00 03 f0 c0 	move s24, s0
c0002038:	8e 11 00 f8 	call 17976 <vm_page_init>
c000203c:	2f 10 00 f8 	call 16572 <vm_translation_map_init>
c0002040:	38 30 00 0a 	shr s1, s24, 12
c0002044:	00 03 f0 c0 	move s24, s0
c0002048:	00 00 d0 4f 	movehi s0, 425984
c000204c:	21 90 00 07 	mull_i s1, s1, 36
c0002050:	01 00 00 c0 	or s0, s1, s0
c0002054:	d0 05 00 f8 	call 5952 <boot_init_heap>
c0002058:	00 00 fc c0 	move s0, s24
c000205c:	58 14 00 f8 	call 20832 <vm_address_space_init>
c0002060:	d6 16 00 f8 	call 23384 <bootstrap_vm_cache>
c0002064:	5e 07 00 f8 	call 7544 <bool_init_kernel_process>
c0002068:	8b 07 00 f8 	call 7724 <boot_init_thread>
c000206c:	98 ff ff 4f 	movehi s28, 524280
c0002070:	22 00 c0 4f 	movehi s1, 393218
c0002074:	20 ff ff 0f 	move s25, -1
c0002078:	1c 00 04 00 	or s0, s28, 256
c000207c:	21 60 0d 00 	or s1, s1, 856
c0002080:	40 00 00 0f 	move s2, 0
c0002084:	20 03 00 88 	store_32 s25, (s0)
c0002088:	00 00 c0 4f 	movehi s0, 393216
c000208c:	00 50 03 00 	or s0, s0, 212
c0002090:	be 09 00 f8 	call 9976 <spawn_kernel_thread>
c0002094:	00 00 c0 4f 	movehi s0, 393216
c0002098:	00 80 03 00 	or s0, s0, 224
c000209c:	f3 09 00 f8 	call 10188 <exec_program>
c00020a0:	20 00 c0 4f 	movehi s1, 393216
c00020a4:	00 03 f0 c0 	move s24, s0
c00020a8:	9c 13 04 00 	or s28, s28, 260
c00020ac:	61 b3 03 00 	or s27, s1, 236
c00020b0:	58 53 00 05 	add_i s26, s24, 20
c00020b4:	18 60 00 a8 	load_32 s0, 24(s24)
c00020b8:	00 00 1d c1 	cmpne_i s0, s0, s26
c00020bc:	40 00 00 f4 	bnz s0, 8 <kernel_main+0xAC>
c00020c0:	05 00 00 f6 	b 20 <kernel_main+0xBC>
c00020c4:	1d 09 00 f8 	call 9332 <reschedule>
c00020c8:	18 60 00 a8 	load_32 s0, 24(s24)
c00020cc:	00 00 1d c1 	cmpne_i s0, s0, s26
c00020d0:	a0 ff ff f5 	bnz s0, -12 <kernel_main+0xAC>
c00020d4:	7e 03 00 88 	store_32 s27, (sp)
c00020d8:	64 00 00 f8 	call 400 <kprintf>
c00020dc:	3c 03 00 88 	store_32 s25, (s28)
c00020e0:	f9 ff ff f7 	b -28 <kernel_main+0xAC>

thread_n_main:
c00020e4:	de 03 ff 05 	add_i sp, sp, -64
c00020e8:	fe f3 00 88 	store_32 ra, 60(sp)
c00020ec:	6a 07 00 f8 	call 7592 <boot_init_thread>
c00020f0:	00 04 00 0f 	move s0, 1
c00020f4:	7d 04 00 f8 	call 4596 <unmask_interrupt>
c00020f8:	10 09 00 f8 	call 9280 <reschedule>
c00020fc:	ff ff ff f7 	b -4 <thread_n_main+0x14>

_start:
c0002100:	00 00 00 ac 	getcr s0, 0
c0002104:	20 02 00 f4 	bnz s0, 68 <start_thread_n>
c0002108:	c0 43 00 4f 	movehi sp, 512
c000210c:	00 00 01 4f 	movehi s0, 2048
c0002110:	f0 0e 00 f8 	call 15296 <boot_setup_page_tables>
c0002114:	01 00 c0 4f 	movehi s0, 393217
c0002118:	00 10 49 00 	or s0, s0, 4676
c000211c:	3f fc 00 4f 	movehi s1, 2047
c0002120:	21 fc 7f 00 	or s1, s1, 8191
c0002124:	00 80 10 c0 	and s0, s0, s1
c0002128:	07 00 00 8c 	setcr s0, 7
c000212c:	01 00 c0 4f 	movehi s0, 393217
c0002130:	00 a0 42 00 	or s0, s0, 4264
c0002134:	01 00 00 8c 	setcr s0, 1
c0002138:	01 00 c0 4f 	movehi s0, 393217
c000213c:	00 60 00 00 	or s0, s0, 24
c0002140:	02 00 00 8c 	setcr s0, 2
c0002144:	04 00 00 f6 	b 16 <trampoline>

start_thread_n:
c0002148:	01 00 c0 4f 	movehi s0, 393217
c000214c:	00 90 03 00 	or s0, s0, 228
c0002150:	02 00 00 8c 	setcr s0, 2

trampoline:
c0002154:	04 00 c0 4f 	movehi s0, 393220
c0002158:	00 00 40 00 	or s0, s0, 4096
c000215c:	3f fc 00 4f 	movehi s1, 2047
c0002160:	21 fc 7f 00 	or s1, s1, 8191
c0002164:	00 80 10 c0 	and s0, s0, s1
c0002168:	00 00 00 a8 	load_32 s0, (s0)
c000216c:	0a 00 00 8c 	setcr s0, 10
c0002170:	00 1c 00 0f 	move s0, 7
c0002174:	08 00 00 8c 	setcr s0, 8
c0002178:	00 00 00 ac 	getcr s0, 0
c000217c:	00 38 00 0b 	shl s0, s0, 14
c0002180:	d8 ff ff 4f 	movehi sp, 524280
c0002184:	de 03 60 c0 	sub_i sp, sp, s0
c0002188:	00 00 01 4f 	movehi s0, 2048
c000218c:	00 00 00 fe 	eret

isdigit:
c0002190:	00 40 ff 05 	add_i s0, s0, -48
c0002194:	00 28 00 18 	cmplt_u s0, s0, 10
c0002198:	00 04 00 01 	and s0, s0, 1
c000219c:	1f 00 00 f0 	ret

memchr:
c00021a0:	e2 01 00 f2 	bz s2, 60 <memchr+0x3C>
c00021a4:	80 00 00 0f 	move s4, 0
c00021a8:	a0 00 f2 c0 	move s5, s4
c00021ac:	60 80 52 c0 	add_i s3, s0, s5
c00021b0:	c3 00 00 a2 	load_s8 s6, (s3)
c00021b4:	c6 80 10 c1 	cmpne_i s6, s6, s1
c00021b8:	46 00 00 f4 	bnz s6, 8 <memchr+0x20>
c00021bc:	0b 00 00 f6 	b 44 <memchr+0x48>
c00021c0:	a5 04 00 05 	add_i s5, s5, 1
c00021c4:	65 00 71 c1 	cmpge_u s3, s5, s2
c00021c8:	43 00 00 f4 	bnz s3, 8 <memchr+0x30>
c00021cc:	f8 ff ff f7 	b -32 <memchr+0xC>
c00021d0:	60 00 f2 c0 	move s3, s4
c00021d4:	00 80 f1 c0 	move s0, s3
c00021d8:	1f 00 00 f0 	ret
c00021dc:	60 00 00 0f 	move s3, 0
c00021e0:	00 80 f1 c0 	move s0, s3
c00021e4:	1f 00 00 f0 	ret
c00021e8:	00 80 f1 c0 	move s0, s3
c00021ec:	1f 00 00 f0 	ret

strcmp:
c00021f0:	60 00 00 a0 	load_u8 s3, (s0)
c00021f4:	40 00 00 0f 	move s2, 0
c00021f8:	63 01 00 f2 	bz s3, 44 <strcmp+0x34>
c00021fc:	81 00 00 a0 	load_u8 s4, (s1)
c0002200:	a3 fc 03 01 	and s5, s3, 255
c0002204:	85 00 12 c1 	cmpne_i s4, s5, s4
c0002208:	c4 00 00 f4 	bnz s4, 24 <strcmp+0x30>
c000220c:	60 04 00 a0 	load_u8 s3, 1(s0)
c0002210:	00 04 00 05 	add_i s0, s0, 1
c0002214:	21 04 00 05 	add_i s1, s1, 1
c0002218:	23 ff ff f5 	bnz s3, -28 <strcmp+0xC>
c000221c:	02 00 00 f6 	b 8 <strcmp+0x34>
c0002220:	40 80 f1 c0 	move s2, s3
c0002224:	01 00 00 a2 	load_s8 s0, (s1)
c0002228:	20 00 d1 c1 	sext_8 s1, s2
c000222c:	01 00 60 c0 	sub_i s0, s1, s0
c0002230:	1f 00 00 f0 	ret

strchr:
c0002234:	40 00 f0 c0 	move s2, s0
c0002238:	00 00 00 0f 	move s0, 0
c000223c:	62 00 00 a0 	load_u8 s3, (s2)
c0002240:	e3 00 00 f2 	bz s3, 28 <strchr+0x28>
c0002244:	60 80 d1 c1 	sext_8 s3, s3
c0002248:	63 80 00 c1 	cmpeq_i s3, s3, s1
c000224c:	a3 00 00 f4 	bnz s3, 20 <strchr+0x2C>
c0002250:	62 04 00 a0 	load_u8 s3, 1(s2)
c0002254:	42 04 00 05 	add_i s2, s2, 1
c0002258:	63 ff ff f5 	bnz s3, -20 <strchr+0x10>
c000225c:	1f 00 00 f0 	ret
c0002260:	00 00 f1 c0 	move s0, s2
c0002264:	1f 00 00 f0 	ret

kprintf:
c0002268:	de 03 ff 05 	add_i sp, sp, -64
c000226c:	fe f3 00 88 	store_32 ra, 60(sp)
c0002270:	1e 00 01 a8 	load_32 s0, 64(sp)
c0002274:	3e 10 01 05 	add_i s1, sp, 68
c0002278:	3e e0 00 88 	store_32 s1, 56(sp)
c000227c:	05 00 00 f8 	call 20 <vprintf>
c0002280:	00 00 00 0f 	move s0, 0
c0002284:	fe f3 00 a8 	load_32 ra, 60(sp)
c0002288:	de 03 01 05 	add_i sp, sp, 64
c000228c:	1f 00 00 f0 	ret

vprintf:
c0002290:	de 03 fd 05 	add_i sp, sp, -192
c0002294:	1e f3 02 88 	store_32 s24, 188(sp)
c0002298:	3e e3 02 88 	store_32 s25, 184(sp)
c000229c:	5e d3 02 88 	store_32 s26, 180(sp)
c00022a0:	7e c3 02 88 	store_32 s27, 176(sp)
c00022a4:	9e b3 02 88 	store_32 s28, 172(sp)
c00022a8:	fe a3 02 88 	store_32 ra, 168(sp)
c00022ac:	00 03 f0 c0 	move s24, s0
c00022b0:	3e 90 02 88 	store_32 s1, 164(sp)
c00022b4:	38 00 00 a0 	load_u8 s1, (s24)
c00022b8:	01 33 00 f2 	bz s1, 1632 <vprintf+0x688>
c00022bc:	00 00 c0 4f 	movehi s0, 393216
c00022c0:	40 04 00 0f 	move s2, 1
c00022c4:	5e 40 01 88 	store_32 s2, 80(sp)
c00022c8:	40 00 c0 4f 	movehi s2, 393216
c00022cc:	20 33 26 00 	or s25, s0, 2444
c00022d0:	00 00 c0 4f 	movehi s0, 393216
c00022d4:	80 03 00 0f 	move s28, 0
c00022d8:	60 0b 00 0f 	move s27, 2
c00022dc:	40 8f 04 00 	or s26, s0, 291
c00022e0:	02 20 2d 00 	or s0, s2, 2888
c00022e4:	1e 20 01 88 	store_32 s0, 72(sp)
c00022e8:	1a 08 00 05 	add_i s0, s26, 2
c00022ec:	1e c0 00 88 	store_32 s0, 48(sp)
c00022f0:	00 94 00 0f 	move s0, 37
c00022f4:	1e b0 00 88 	store_32 s0, 44(sp)
c00022f8:	1a 04 00 05 	add_i s0, s26, 1
c00022fc:	1e a0 00 88 	store_32 s0, 40(sp)
c0002300:	1a 0c 00 05 	add_i s0, s26, 3
c0002304:	1e 90 00 88 	store_32 s0, 36(sp)
c0002308:	00 10 00 0f 	move s0, 4
c000230c:	1e 50 01 88 	store_32 s0, 84(sp)
c0002310:	00 0c 00 0f 	move s0, 3
c0002314:	1e 30 01 88 	store_32 s0, 76(sp)
c0002318:	9e 73 01 88 	store_32 s28, 92(sp)
c000231c:	9e 63 01 88 	store_32 s28, 88(sp)
c0002320:	9e 83 01 88 	store_32 s28, 96(sp)
c0002324:	00 00 fe c0 	move s0, s28
c0002328:	9e e3 00 88 	store_32 s28, 56(sp)
c000232c:	3e 13 01 88 	store_32 s25, 68(sp)
c0002330:	5e 03 01 88 	store_32 s26, 64(sp)
c0002334:	7e f3 00 88 	store_32 s27, 60(sp)
c0002338:	00 1c 00 01 	and s0, s0, 7
c000233c:	40 14 00 16 	cmpgt_u s2, s0, 5
c0002340:	a2 2e 00 f4 	bnz s2, 1492 <vprintf+0x684>
c0002344:	00 08 00 0b 	shl s0, s0, 2
c0002348:	00 80 5c c0 	add_i s0, s0, s25
c000234c:	00 00 00 a8 	load_32 s0, (s0)
c0002350:	00 00 00 f0 	b s0
c0002354:	01 fc 03 01 	and s0, s1, 255
c0002358:	18 07 00 05 	add_i s24, s24, 1
c000235c:	00 94 00 10 	cmpeq_i s0, s0, 37
c0002360:	40 00 00 f4 	bnz s0, 8 <vprintf+0xD8>
c0002364:	60 00 00 f6 	b 384 <vprintf+0x254>
c0002368:	1e 40 01 a8 	load_32 s0, 80(sp)
c000236c:	9e 83 01 88 	store_32 s28, 96(sp)
c0002370:	9e 63 01 88 	store_32 s28, 88(sp)
c0002374:	9e 73 01 88 	store_32 s28, 92(sp)
c0002378:	38 00 00 a0 	load_u8 s1, (s24)
c000237c:	e1 2c 00 f2 	bz s1, 1436 <vprintf+0x688>
c0002380:	ee ff ff f7 	b -72 <vprintf+0xA8>
c0002384:	01 fc 03 01 	and s0, s1, 255
c0002388:	00 80 ff 05 	add_i s0, s0, -32
c000238c:	20 40 00 16 	cmpgt_u s1, s0, 16
c0002390:	e1 20 00 f4 	bnz s1, 1052 <vprintf+0x51C>
c0002394:	3e 20 01 a8 	load_32 s1, 72(sp)
c0002398:	00 08 00 0b 	shl s0, s0, 2
c000239c:	00 80 50 c0 	add_i s0, s0, s1
c00023a0:	40 00 00 a8 	load_32 s2, (s0)
c00023a4:	20 00 fd c0 	move s1, s26
c00023a8:	00 80 fd c0 	move s0, s27
c00023ac:	02 00 00 f0 	b s2
c00023b0:	3e c0 00 a8 	load_32 s1, 48(sp)
c00023b4:	63 00 00 f6 	b 396 <vprintf+0x2B0>
c00023b8:	00 80 d0 c1 	sext_8 s0, s1
c00023bc:	40 40 ff 05 	add_i s2, s0, -48
c00023c0:	42 24 00 16 	cmpgt_u s2, s2, 9
c00023c4:	42 09 00 f4 	bnz s2, 296 <vprintf+0x25C>
c00023c8:	3e 60 01 a8 	load_32 s1, 88(sp)
c00023cc:	18 07 00 05 	add_i s24, s24, 1
c00023d0:	21 28 00 07 	mull_i s1, s1, 10
c00023d4:	01 00 50 c0 	add_i s0, s1, s0
c00023d8:	00 40 ff 05 	add_i s0, s0, -48
c00023dc:	1e 60 01 88 	store_32 s0, 88(sp)
c00023e0:	00 80 fd c0 	move s0, s27
c00023e4:	38 00 00 a0 	load_u8 s1, (s24)
c00023e8:	81 29 00 f2 	bz s1, 1328 <vprintf+0x688>
c00023ec:	d3 ff ff f7 	b -180 <vprintf+0xA8>
c00023f0:	00 80 d0 c1 	sext_8 s0, s1
c00023f4:	20 40 ff 05 	add_i s1, s0, -48
c00023f8:	21 24 00 16 	cmpgt_u s1, s1, 9
c00023fc:	61 08 00 f4 	bnz s1, 268 <vprintf+0x278>
c0002400:	3e 80 01 a8 	load_32 s1, 96(sp)
c0002404:	18 07 00 05 	add_i s24, s24, 1
c0002408:	21 28 00 07 	mull_i s1, s1, 10
c000240c:	01 00 50 c0 	add_i s0, s1, s0
c0002410:	00 40 ff 05 	add_i s0, s0, -48
c0002414:	1e 80 01 88 	store_32 s0, 96(sp)
c0002418:	1e 30 01 a8 	load_32 s0, 76(sp)
c000241c:	38 00 00 a0 	load_u8 s1, (s24)
c0002420:	c1 27 00 f2 	bz s1, 1272 <vprintf+0x688>
c0002424:	c5 ff ff f7 	b -236 <vprintf+0xA8>
c0002428:	01 fc 03 01 	and s0, s1, 255
c000242c:	20 e8 fe 05 	add_i s1, s0, -70
c0002430:	00 14 00 0f 	move s0, 5
c0002434:	41 98 00 16 	cmpgt_u s2, s1, 38
c0002438:	a2 06 00 f4 	bnz s2, 212 <vprintf+0x27C>
c000243c:	40 00 c0 4f 	movehi s2, 393216
c0002440:	21 08 00 0b 	shl s1, s1, 2
c0002444:	42 b0 2a 00 	or s2, s2, 2732
c0002448:	21 00 51 c0 	add_i s1, s1, s2
c000244c:	21 00 00 a8 	load_32 s1, (s1)
c0002450:	01 00 00 f0 	b s1
c0002454:	18 07 00 05 	add_i s24, s24, 1
c0002458:	2c 00 00 f6 	b 176 <vprintf+0x278>
c000245c:	00 80 d0 c1 	sext_8 s0, s1
c0002460:	00 a0 fe 05 	add_i s0, s0, -88
c0002464:	20 80 00 16 	cmpgt_u s1, s0, 32
c0002468:	81 21 00 f4 	bnz s1, 1072 <vprintf+0x608>
c000246c:	20 00 c0 4f 	movehi s1, 393216
c0002470:	00 08 00 0b 	shl s0, s0, 2
c0002474:	21 90 26 00 	or s1, s1, 2468
c0002478:	00 80 50 c0 	add_i s0, s0, s1
c000247c:	00 00 00 a8 	load_32 s0, (s0)
c0002480:	00 00 00 f0 	b s0
c0002484:	1e 90 02 a8 	load_32 s0, 164(sp)
c0002488:	00 0c 00 05 	add_i s0, s0, 3
c000248c:	00 f0 ff 01 	and s0, s0, -4
c0002490:	20 10 00 05 	add_i s1, s0, 4
c0002494:	3e 90 02 88 	store_32 s1, 164(sp)
c0002498:	40 03 00 a8 	load_32 s26, (s0)
c000249c:	18 00 00 a0 	load_u8 s0, (s24)
c00024a0:	20 a0 fe 05 	add_i s1, s0, -88
c00024a4:	41 80 00 16 	cmpgt_u s2, s1, 32
c00024a8:	e2 0c 00 f4 	bnz s2, 412 <vprintf+0x3B4>
c00024ac:	40 00 c0 4f 	movehi s2, 393216
c00024b0:	21 08 00 0b 	shl s1, s1, 2
c00024b4:	20 43 00 0f 	move s25, 16
c00024b8:	42 a0 28 00 	or s2, s2, 2600
c00024bc:	21 00 51 c0 	add_i s1, s1, s2
c00024c0:	60 23 00 0f 	move s27, 8
c00024c4:	21 00 00 a8 	load_32 s1, (s1)
c00024c8:	01 00 00 f0 	b s1
c00024cc:	20 90 01 10 	cmpeq_i s1, s0, 100
c00024d0:	41 00 00 f4 	bnz s1, 8 <vprintf+0x248>
c00024d4:	5f 00 00 f6 	b 380 <vprintf+0x3C0>
c00024d8:	1a fc ff 12 	cmpgt_i s0, s26, -1
c00024dc:	c0 0c 00 f4 	bnz s0, 408 <vprintf+0x3E4>
c00024e0:	61 00 00 f6 	b 388 <vprintf+0x3D4>
c00024e4:	00 80 d0 c1 	sext_8 s0, s1
c00024e8:	0e 00 00 f6 	b 56 <vprintf+0x290>
c00024ec:	01 fc 03 01 	and s0, s1, 255
c00024f0:	20 b8 00 10 	cmpeq_i s1, s0, 46
c00024f4:	41 00 00 f4 	bnz s1, 8 <vprintf+0x26C>
c00024f8:	02 00 00 f6 	b 8 <vprintf+0x270>
c00024fc:	18 07 00 05 	add_i s24, s24, 1
c0002500:	1e 30 01 a8 	load_32 s0, 76(sp)
c0002504:	41 00 00 f4 	bnz s1, 8 <vprintf+0x27C>
c0002508:	1e 50 01 a8 	load_32 s0, 84(sp)
c000250c:	38 00 00 a0 	load_u8 s1, (s24)
c0002510:	41 20 00 f2 	bz s1, 1032 <vprintf+0x688>
c0002514:	89 ff ff f7 	b -476 <vprintf+0xA8>
c0002518:	18 07 00 05 	add_i s24, s24, 1
c000251c:	1e b0 00 a8 	load_32 s0, 44(sp)
c0002520:	c0 02 00 f8 	call 2816 <putc>
c0002524:	00 00 fe c0 	move s0, s28
c0002528:	38 00 00 a0 	load_u8 s1, (s24)
c000252c:	61 1f 00 f2 	bz s1, 1004 <vprintf+0x688>
c0002530:	82 ff ff f7 	b -504 <vprintf+0xA8>
c0002534:	3e a0 00 a8 	load_32 s1, 40(sp)
c0002538:	02 00 00 f6 	b 8 <vprintf+0x2B0>
c000253c:	3e 90 00 a8 	load_32 s1, 36(sp)
c0002540:	01 00 6d c0 	sub_i s0, s1, s26
c0002544:	3e 40 01 a8 	load_32 s1, 80(sp)
c0002548:	5e 70 01 a8 	load_32 s2, 92(sp)
c000254c:	18 07 00 05 	add_i s24, s24, 1
c0002550:	01 00 b0 c0 	shl s0, s1, s0
c0002554:	40 00 01 c0 	or s2, s0, s2
c0002558:	5e 70 01 88 	store_32 s2, 92(sp)
c000255c:	00 80 f0 c0 	move s0, s1
c0002560:	38 00 00 a0 	load_u8 s1, (s24)
c0002564:	a1 1d 00 f2 	bz s1, 948 <vprintf+0x688>
c0002568:	74 ff ff f7 	b -560 <vprintf+0xA8>
c000256c:	1e 90 02 a8 	load_32 s0, 164(sp)
c0002570:	20 00 c0 4f 	movehi s1, 393216
c0002574:	41 13 26 00 	or s26, s1, 2436
c0002578:	00 0c 00 05 	add_i s0, s0, 3
c000257c:	27 00 00 4f 	movehi s1, 7
c0002580:	00 f0 ff 01 	and s0, s0, -4
c0002584:	61 ff 7f 00 	or s27, s1, 8191
c0002588:	40 10 00 05 	add_i s2, s0, 4
c000258c:	5e 90 02 88 	store_32 s2, 164(sp)
c0002590:	40 00 00 a8 	load_32 s2, (s0)
c0002594:	1a 00 00 a8 	load_32 s0, (s26)
c0002598:	02 00 e0 c2 	cmplt_f s0, s2, s0
c000259c:	00 80 1d c1 	cmpne_i s0, s0, s27
c00025a0:	e0 00 00 f4 	bnz s0, 28 <vprintf+0x32C>
c00025a4:	00 b4 00 0f 	move s0, 45
c00025a8:	5e d0 00 88 	store_32 s2, 52(sp)
c00025ac:	9d 02 00 f8 	call 2676 <putc>
c00025b0:	5e d0 00 a8 	load_32 s2, 52(sp)
c00025b4:	00 00 80 4f 	movehi s0, 262144
c00025b8:	42 00 30 c0 	xor s2, s2, s0
c00025bc:	20 00 b1 c1 	ftoi s1, s2
c00025c0:	5e d0 00 88 	store_32 s2, 52(sp)
c00025c4:	41 00 00 f4 	bnz s1, 8 <vprintf+0x33C>
c00025c8:	93 00 00 f6 	b 588 <vprintf+0x584>
c00025cc:	01 04 00 14 	cmplt_i s0, s1, 1
c00025d0:	3e 80 00 88 	store_32 s1, 32(sp)
c00025d4:	20 03 00 f4 	bnz s0, 100 <vprintf+0x3A8>
c00025d8:	3e 80 00 a8 	load_32 s1, 32(sp)
c00025dc:	80 53 00 0f 	move s28, 20
c00025e0:	46 cc cc 4f 	movehi s2, 419430
c00025e4:	3e 93 01 05 	add_i s25, sp, 100
c00025e8:	9c ff ff 05 	add_i s28, s28, -1
c00025ec:	42 34 33 00 	or s2, s2, 3277
c00025f0:	41 00 81 c0 	mulh_u s2, s1, s2
c00025f4:	99 00 5e c0 	add_i s4, s25, s28
c00025f8:	a1 24 00 16 	cmpgt_u s5, s1, 9
c00025fc:	42 0c 00 0a 	shr s2, s2, 3
c0002600:	62 28 00 07 	mull_i s3, s2, 10
c0002604:	61 80 61 c0 	sub_i s3, s1, s3
c0002608:	63 c0 00 00 	or s3, s3, 48
c000260c:	64 00 00 82 	store_8 s3, (s4)
c0002610:	20 00 f1 c0 	move s1, s2
c0002614:	65 fe ff f5 	bnz s5, -52 <vprintf+0x350>
c0002618:	3c 4c 00 16 	cmpgt_u s1, s28, 19
c000261c:	e1 00 00 f4 	bnz s1, 28 <vprintf+0x3A8>
c0002620:	39 00 5e c0 	add_i s1, s25, s28
c0002624:	9c 07 00 05 	add_i s28, s28, 1
c0002628:	01 00 00 a2 	load_s8 s0, (s1)
c000262c:	7d 02 00 f8 	call 2548 <putc>
c0002630:	3c 50 00 18 	cmplt_u s1, s28, 20
c0002634:	61 ff ff f5 	bnz s1, -20 <vprintf+0x390>
c0002638:	3e 83 01 a8 	load_32 s25, 96(sp)
c000263c:	1e 80 00 a8 	load_32 s0, 32(sp)
c0002640:	7a 00 00 f6 	b 488 <vprintf+0x598>
c0002644:	20 2b 00 0f 	move s25, 10
c0002648:	20 90 01 10 	cmpeq_i s1, s0, 100
c000264c:	61 f4 ff f5 	bnz s1, -372 <vprintf+0x248>
c0002650:	3a fc ff 12 	cmpgt_i s1, s26, -1
c0002654:	01 01 00 f4 	bnz s1, 32 <vprintf+0x3E4>
c0002658:	00 a4 01 10 	cmpeq_i s0, s0, 105
c000265c:	40 00 00 f4 	bnz s0, 8 <vprintf+0x3D4>
c0002660:	05 00 00 f6 	b 20 <vprintf+0x3E4>
c0002664:	00 00 00 0f 	move s0, 0
c0002668:	40 03 6d c0 	sub_i s26, s0, s26
c000266c:	00 b4 00 0f 	move s0, 45
c0002670:	6c 02 00 f8 	call 2480 <putc>
c0002674:	60 83 fc c0 	move s27, s25
c0002678:	00 00 fd c0 	move s0, s26
c000267c:	20 80 fd c0 	move s1, s27
c0002680:	75 19 00 f8 	call 26068 <__umodsi3>
c0002684:	20 00 c0 4f 	movehi s1, 393216
c0002688:	80 ff 00 0f 	move s28, 63
c000268c:	21 a3 04 00 	or s25, s1, 296
c0002690:	3b 00 6d c1 	cmpgt_u s1, s27, s26
c0002694:	19 00 50 c0 	add_i s0, s25, s0
c0002698:	00 00 00 a0 	load_u8 s0, (s0)
c000269c:	1e 8c 02 82 	store_8 s0, 163(sp)
c00026a0:	01 02 00 f4 	bnz s1, 64 <vprintf+0x450>
c00026a4:	00 00 fd c0 	move s0, s26
c00026a8:	20 80 fd c0 	move s1, s27
c00026ac:	55 19 00 f8 	call 25940 <__udivsi3>
c00026b0:	40 03 f0 c0 	move s26, s0
c00026b4:	20 80 fd c0 	move s1, s27
c00026b8:	9c ff ff 05 	add_i s28, s28, -1
c00026bc:	66 19 00 f8 	call 26008 <__umodsi3>
c00026c0:	3e 90 01 05 	add_i s1, sp, 100
c00026c4:	19 00 50 c0 	add_i s0, s25, s0
c00026c8:	21 00 5e c0 	add_i s1, s1, s28
c00026cc:	00 00 00 a0 	load_u8 s0, (s0)
c00026d0:	01 00 00 82 	store_8 s0, (s1)
c00026d4:	7c 00 00 f2 	bz s28, 12 <vprintf+0x450>
c00026d8:	1b 00 9d c1 	cmple_u s0, s27, s26
c00026dc:	40 fe ff f5 	bnz s0, -56 <vprintf+0x414>
c00026e0:	00 00 01 0f 	move s0, 64
c00026e4:	3e 60 01 a8 	load_32 s1, 88(sp)
c00026e8:	60 03 6e c0 	sub_i s27, s0, s28
c00026ec:	1b 80 30 c1 	cmpge_i s0, s27, s1
c00026f0:	60 02 00 f4 	bnz s0, 76 <vprintf+0x4AC>
c00026f4:	1e d3 00 88 	store_32 s24, 52(sp)
c00026f8:	1e 70 01 a8 	load_32 s0, 92(sp)
c00026fc:	00 83 f0 c0 	move s24, s1
c0002700:	3e 83 01 a8 	load_32 s25, 96(sp)
c0002704:	00 04 00 0b 	shl s0, s0, 1
c0002708:	00 40 00 01 	and s0, s0, 16
c000270c:	40 83 00 00 	or s26, s0, 32
c0002710:	00 00 fd c0 	move s0, s26
c0002714:	43 02 00 f8 	call 2316 <putc>
c0002718:	7b 07 00 05 	add_i s27, s27, 1
c000271c:	1b 00 4c c1 	cmplt_i s0, s27, s24
c0002720:	80 ff ff f5 	bnz s0, -16 <vprintf+0x480>
c0002724:	60 03 fc c0 	move s27, s24
c0002728:	1e d3 00 a8 	load_32 s24, 52(sp)
c000272c:	5e 03 01 a8 	load_32 s26, 64(sp)
c0002730:	1b 80 3c c1 	cmpge_i s0, s27, s25
c0002734:	60 01 00 f4 	bnz s0, 44 <vprintf+0x4D0>
c0002738:	05 00 00 f6 	b 20 <vprintf+0x4BC>
c000273c:	3e 83 01 a8 	load_32 s25, 96(sp)
c0002740:	5e 03 01 a8 	load_32 s26, 64(sp)
c0002744:	1b 80 3c c1 	cmpge_i s0, s27, s25
c0002748:	c0 00 00 f4 	bnz s0, 24 <vprintf+0x4D0>
c000274c:	00 c0 00 0f 	move s0, 48
c0002750:	34 02 00 f8 	call 2256 <putc>
c0002754:	7b 07 00 05 	add_i s27, s27, 1
c0002758:	1b 80 4c c1 	cmplt_i s0, s27, s25
c000275c:	80 ff ff f5 	bnz s0, -16 <vprintf+0x4BC>
c0002760:	1c fc 00 12 	cmpgt_i s0, s28, 63
c0002764:	20 01 00 f4 	bnz s0, 36 <vprintf+0x4F8>
c0002768:	1e 90 01 05 	add_i s0, sp, 100
c000276c:	3c 07 00 05 	add_i s25, s28, 1
c0002770:	00 00 5e c0 	add_i s0, s0, s28
c0002774:	00 00 00 a2 	load_s8 s0, (s0)
c0002778:	2a 02 00 f8 	call 2216 <putc>
c000277c:	1c fc 00 14 	cmplt_i s0, s28, 63
c0002780:	80 83 fc c0 	move s28, s25
c0002784:	20 ff ff f5 	bnz s0, -28 <vprintf+0x4D8>
c0002788:	9e e3 00 a8 	load_32 s28, 56(sp)
c000278c:	3e 13 01 a8 	load_32 s25, 68(sp)
c0002790:	41 00 00 f6 	b 260 <vprintf+0x604>
c0002794:	1e 70 01 a8 	load_32 s0, 92(sp)
c0002798:	00 20 00 00 	or s0, s0, 8
c000279c:	1e 70 01 88 	store_32 s0, 92(sp)
c00027a0:	00 20 00 0f 	move s0, 8
c00027a4:	1e 60 01 88 	store_32 s0, 88(sp)
c00027a8:	37 ff ff f7 	b -804 <vprintf+0x1F4>
c00027ac:	00 80 fd c0 	move s0, s27
c00027b0:	38 00 00 a0 	load_u8 s1, (s24)
c00027b4:	21 0b 00 f2 	bz s1, 356 <vprintf+0x688>
c00027b8:	e0 fe ff f7 	b -1152 <vprintf+0xA8>
c00027bc:	1e 90 02 a8 	load_32 s0, 164(sp)
c00027c0:	00 0c 00 05 	add_i s0, s0, 3
c00027c4:	00 f0 ff 01 	and s0, s0, -4
c00027c8:	20 10 00 05 	add_i s1, s0, 4
c00027cc:	3e 90 02 88 	store_32 s1, 164(sp)
c00027d0:	00 00 00 a8 	load_32 s0, (s0)
c00027d4:	13 02 00 f8 	call 2124 <putc>
c00027d8:	30 00 00 f6 	b 192 <vprintf+0x608>
c00027dc:	1e 90 02 a8 	load_32 s0, 164(sp)
c00027e0:	00 0c 00 05 	add_i s0, s0, 3
c00027e4:	00 f0 ff 01 	and s0, s0, -4
c00027e8:	20 10 00 05 	add_i s1, s0, 4
c00027ec:	3e 90 02 88 	store_32 s1, 164(sp)
c00027f0:	5e 80 01 a8 	load_32 s2, 96(sp)
c00027f4:	20 03 00 a8 	load_32 s25, (s0)
c00027f8:	22 00 00 10 	cmpeq_i s1, s2, 0
c00027fc:	81 05 00 f4 	bnz s1, 176 <vprintf+0x61C>
c0002800:	60 03 f1 c0 	move s27, s2
c0002804:	40 03 00 0f 	move s26, 0
c0002808:	1b 04 00 14 	cmplt_i s0, s27, 1
c000280c:	a0 06 00 f4 	bnz s0, 212 <vprintf+0x650>
c0002810:	2c 00 00 f6 	b 176 <vprintf+0x630>
c0002814:	00 c0 00 0f 	move s0, 48
c0002818:	20 83 f0 c0 	move s25, s1
c000281c:	01 02 00 f8 	call 2052 <putc>
c0002820:	00 80 fc c0 	move s0, s25
c0002824:	3e 83 01 a8 	load_32 s25, 96(sp)
c0002828:	80 03 a0 c2 	itof s28, s0
c000282c:	00 b8 00 0f 	move s0, 46
c0002830:	fc 01 00 f8 	call 2032 <putc>
c0002834:	19 00 00 12 	cmpgt_i s0, s25, 0
c0002838:	40 00 00 f4 	bnz s0, 8 <vprintf+0x5B0>
c000283c:	20 1f 00 0f 	move s25, 7
c0002840:	1e d0 00 a8 	load_32 s0, 52(sp)
c0002844:	80 03 1e c2 	sub_f s28, s0, s28
c0002848:	00 00 c0 4f 	movehi s0, 393216
c000284c:	00 20 26 00 	or s0, s0, 2440
c0002850:	00 00 00 a8 	load_32 s0, (s0)
c0002854:	1c 00 20 c2 	mul_f s0, s28, s0
c0002858:	20 00 b0 c1 	ftoi s1, s0
c000285c:	40 80 a0 c2 	itof s2, s1
c0002860:	80 03 11 c2 	sub_f s28, s0, s2
c0002864:	01 c0 00 05 	add_i s0, s1, 48
c0002868:	ee 01 00 f8 	call 1976 <putc>
c000286c:	1a 00 00 a8 	load_32 s0, (s26)
c0002870:	1c 00 c0 c2 	cmpgt_f s0, s28, s0
c0002874:	00 80 1d c1 	cmpne_i s0, s0, s27
c0002878:	80 00 00 f4 	bnz s0, 16 <vprintf+0x5F8>
c000287c:	19 00 00 12 	cmpgt_i s0, s25, 0
c0002880:	39 ff ff 05 	add_i s25, s25, -1
c0002884:	20 fe ff f5 	bnz s0, -60 <vprintf+0x5B8>
c0002888:	9e e3 00 a8 	load_32 s28, 56(sp)
c000288c:	3e 13 01 a8 	load_32 s25, 68(sp)
c0002890:	5e 03 01 a8 	load_32 s26, 64(sp)
c0002894:	7e f3 00 a8 	load_32 s27, 60(sp)
c0002898:	18 07 00 05 	add_i s24, s24, 1
c000289c:	00 00 fe c0 	move s0, s28
c00028a0:	38 00 00 a0 	load_u8 s1, (s24)
c00028a4:	a1 03 00 f2 	bz s1, 116 <vprintf+0x688>
c00028a8:	a4 fe ff f7 	b -1392 <vprintf+0xA8>
c00028ac:	1f fc 7f 4f 	movehi s0, 262143
c00028b0:	60 ff 7f 00 	or s27, s0, 8191
c00028b4:	40 03 00 0f 	move s26, 0
c00028b8:	1b 04 00 14 	cmplt_i s0, s27, 1
c00028bc:	20 01 00 f4 	bnz s0, 36 <vprintf+0x650>
c00028c0:	19 00 00 a2 	load_s8 s0, (s25)
c00028c4:	40 00 00 f4 	bnz s0, 8 <vprintf+0x63C>
c00028c8:	06 00 00 f6 	b 24 <vprintf+0x650>
c00028cc:	39 07 00 05 	add_i s25, s25, 1
c00028d0:	d4 01 00 f8 	call 1872 <putc>
c00028d4:	5a 07 00 05 	add_i s26, s26, 1
c00028d8:	1a 80 4d c1 	cmplt_i s0, s26, s27
c00028dc:	20 ff ff f5 	bnz s0, -28 <vprintf+0x630>
c00028e0:	3e 60 01 a8 	load_32 s1, 88(sp)
c00028e4:	01 80 4d c1 	cmplt_i s0, s1, s27
c00028e8:	20 83 f0 c0 	move s25, s1
c00028ec:	40 00 00 f4 	bnz s0, 8 <vprintf+0x664>
c00028f0:	20 83 fd c0 	move s25, s27
c00028f4:	1a 80 3c c1 	cmpge_i s0, s26, s25
c00028f8:	a0 fc ff f5 	bnz s0, -108 <vprintf+0x5FC>
c00028fc:	00 80 00 0f 	move s0, 32
c0002900:	c8 01 00 f8 	call 1824 <putc>
c0002904:	5a 07 00 05 	add_i s26, s26, 1
c0002908:	1a 80 4c c1 	cmplt_i s0, s26, s25
c000290c:	80 ff ff f5 	bnz s0, -16 <vprintf+0x66C>
c0002910:	df ff ff f7 	b -132 <vprintf+0x5FC>
c0002914:	00 00 00 f6 	b 0 <vprintf+0x684>
c0002918:	fe a3 02 a8 	load_32 ra, 168(sp)
c000291c:	9e b3 02 a8 	load_32 s28, 172(sp)
c0002920:	7e c3 02 a8 	load_32 s27, 176(sp)
c0002924:	5e d3 02 a8 	load_32 s26, 180(sp)
c0002928:	3e e3 02 a8 	load_32 s25, 184(sp)
c000292c:	1e f3 02 a8 	load_32 s24, 188(sp)
c0002930:	de 03 03 05 	add_i sp, sp, 192
c0002934:	1f 00 00 f0 	ret

putchar:
c0002938:	de 03 ff 05 	add_i sp, sp, -64
c000293c:	fe f3 00 88 	store_32 ra, 60(sp)
c0002940:	b8 01 00 f8 	call 1760 <putc>
c0002944:	fe f3 00 a8 	load_32 ra, 60(sp)
c0002948:	de 03 01 05 	add_i sp, sp, 64
c000294c:	1f 00 00 f0 	ret

puts:
c0002950:	de 03 ff 05 	add_i sp, sp, -64
c0002954:	1e f3 00 88 	store_32 s24, 60(sp)
c0002958:	fe e3 00 88 	store_32 ra, 56(sp)
c000295c:	00 03 f0 c0 	move s24, s0
c0002960:	18 00 00 a0 	load_u8 s0, (s24)
c0002964:	e0 00 00 f2 	bz s0, 28 <puts+0x30>
c0002968:	00 00 d0 c1 	sext_8 s0, s0
c000296c:	ad 01 00 f8 	call 1716 <putc>
c0002970:	18 04 00 a0 	load_u8 s0, 1(s24)
c0002974:	18 07 00 05 	add_i s24, s24, 1
c0002978:	40 00 00 f2 	bz s0, 8 <puts+0x30>
c000297c:	fb ff ff f7 	b -20 <puts+0x18>
c0002980:	00 28 00 0f 	move s0, 10
c0002984:	a7 01 00 f8 	call 1692 <putc>
c0002988:	fe e3 00 a8 	load_32 ra, 56(sp)
c000298c:	1e f3 00 a8 	load_32 s24, 60(sp)
c0002990:	de 03 01 05 	add_i sp, sp, 64
c0002994:	1f 00 00 f0 	ret

panic:
c0002998:	de 03 fe 05 	add_i sp, sp, -128
c000299c:	1e f3 01 88 	store_32 s24, 124(sp)
c00029a0:	fe e3 01 88 	store_32 ra, 120(sp)
c00029a4:	00 00 c0 4f 	movehi s0, 393216
c00029a8:	1e 03 02 a8 	load_32 s24, 128(sp)
c00029ac:	00 50 04 00 	or s0, s0, 276
c00029b0:	1e 00 00 88 	store_32 s0, (sp)
c00029b4:	2d fe ff f9 	call -1868 <kprintf>
c00029b8:	3e 10 02 05 	add_i s1, sp, 132
c00029bc:	3e d0 01 88 	store_32 s1, 116(sp)
c00029c0:	00 00 fc c0 	move s0, s24
c00029c4:	33 fe ff f9 	call -1844 <vprintf>
c00029c8:	00 28 00 0f 	move s0, 10
c00029cc:	95 01 00 f8 	call 1620 <putc>
c00029d0:	18 fc ff 4f 	movehi s0, 524280
c00029d4:	20 fc ff 0f 	move s1, -1
c00029d8:	00 10 04 00 	or s0, s0, 260
c00029dc:	20 00 00 88 	store_32 s1, (s0)
c00029e0:	00 00 00 f6 	b 0 <panic+0x48>

memset:
c00029e4:	60 0c 00 01 	and s3, s0, 3
c00029e8:	23 02 00 f4 	bnz s3, 68 <memset+0x48>
c00029ec:	62 14 00 18 	cmplt_u s3, s2, 5
c00029f0:	e3 01 00 f4 	bnz s3, 60 <memset+0x48>
c00029f4:	61 60 00 0b 	shl s3, s1, 24
c00029f8:	81 fc 03 01 	and s4, s1, 255
c00029fc:	63 00 02 c0 	or s3, s3, s4
c0002a00:	a4 20 00 0b 	shl s5, s4, 8
c0002a04:	84 40 00 0b 	shl s4, s4, 16
c0002a08:	63 80 02 c0 	or s3, s3, s5
c0002a0c:	83 00 02 c0 	or s4, s3, s4
c0002a10:	60 00 f0 c0 	move s3, s0
c0002a14:	42 f0 ff 05 	add_i s2, s2, -4
c0002a18:	83 00 00 88 	store_32 s4, (s3)
c0002a1c:	63 10 00 05 	add_i s3, s3, 4
c0002a20:	a2 10 00 16 	cmpgt_u s5, s2, 4
c0002a24:	85 ff ff f5 	bnz s5, -16 <memset+0x30>
c0002a28:	03 00 00 f6 	b 12 <memset+0x50>
c0002a2c:	60 00 f0 c0 	move s3, s0
c0002a30:	c2 00 00 f2 	bz s2, 24 <memset+0x64>
c0002a34:	83 04 00 05 	add_i s4, s3, 1
c0002a38:	23 00 00 82 	store_8 s1, (s3)
c0002a3c:	42 fc ff 05 	add_i s2, s2, -1
c0002a40:	60 00 f2 c0 	move s3, s4
c0002a44:	82 ff ff f5 	bnz s2, -16 <memset+0x50>
c0002a48:	1f 00 00 f0 	ret

memcpy:
c0002a4c:	22 01 00 f2 	bz s2, 36 <memcpy+0x24>
c0002a50:	60 00 f0 c0 	move s3, s0
c0002a54:	a3 04 00 05 	add_i s5, s3, 1
c0002a58:	81 00 00 a0 	load_u8 s4, (s1)
c0002a5c:	83 00 00 82 	store_8 s4, (s3)
c0002a60:	42 fc ff 05 	add_i s2, s2, -1
c0002a64:	21 04 00 05 	add_i s1, s1, 1
c0002a68:	60 80 f2 c0 	move s3, s5
c0002a6c:	42 ff ff f5 	bnz s2, -24 <memcpy+0x8>
c0002a70:	1f 00 00 f0 	ret

strlcpy:
c0002a74:	61 00 00 a0 	load_u8 s3, (s1)
c0002a78:	62 01 00 f2 	bz s2, 44 <strlcpy+0x30>
c0002a7c:	83 fc 03 01 	and s4, s3, 255
c0002a80:	24 01 00 f2 	bz s4, 36 <strlcpy+0x30>
c0002a84:	60 00 00 82 	store_8 s3, (s0)
c0002a88:	42 fc ff 05 	add_i s2, s2, -1
c0002a8c:	61 04 00 a0 	load_u8 s3, 1(s1)
c0002a90:	21 04 00 05 	add_i s1, s1, 1
c0002a94:	00 04 00 05 	add_i s0, s0, 1
c0002a98:	62 00 00 f2 	bz s2, 12 <strlcpy+0x30>
c0002a9c:	83 fc 03 01 	and s4, s3, 255
c0002aa0:	24 ff ff f5 	bnz s4, -28 <strlcpy+0x10>
c0002aa4:	20 80 60 c0 	sub_i s1, s0, s1
c0002aa8:	40 00 00 0f 	move s2, 0
c0002aac:	40 00 00 82 	store_8 s2, (s0)
c0002ab0:	00 80 f0 c0 	move s0, s1
c0002ab4:	1f 00 00 f0 	ret

memcmp:
c0002ab8:	80 00 00 0f 	move s4, 0
c0002abc:	42 01 00 f2 	bz s2, 40 <memcmp+0x2C>
c0002ac0:	60 00 00 a2 	load_s8 s3, (s0)
c0002ac4:	00 04 00 05 	add_i s0, s0, 1
c0002ac8:	a1 00 00 a2 	load_s8 s5, (s1)
c0002acc:	21 04 00 05 	add_i s1, s1, 1
c0002ad0:	42 fc ff 05 	add_i s2, s2, -1
c0002ad4:	63 80 62 c0 	sub_i s3, s3, s5
c0002ad8:	23 ff ff f3 	bz s3, -28 <memcmp+0x4>
c0002adc:	00 80 f1 c0 	move s0, s3
c0002ae0:	1f 00 00 f0 	ret
c0002ae4:	60 00 f2 c0 	move s3, s4
c0002ae8:	00 80 f1 c0 	move s0, s3
c0002aec:	1f 00 00 f0 	ret

init_rwlock:
c0002af0:	20 00 00 0f 	move s1, 0
c0002af4:	20 10 00 88 	store_32 s1, 4(s0)
c0002af8:	20 20 00 88 	store_32 s1, 8(s0)
c0002afc:	20 30 00 05 	add_i s1, s0, 12
c0002b00:	20 40 00 88 	store_32 s1, 16(s0)
c0002b04:	20 30 00 88 	store_32 s1, 12(s0)
c0002b08:	20 50 00 05 	add_i s1, s0, 20
c0002b0c:	20 60 00 88 	store_32 s1, 24(s0)
c0002b10:	20 50 00 88 	store_32 s1, 20(s0)
c0002b14:	1f 00 00 f0 	ret

rwlock_lock_read:
c0002b18:	de 03 fe 05 	add_i sp, sp, -128
c0002b1c:	1e f3 01 88 	store_32 s24, 124(sp)
c0002b20:	3e e3 01 88 	store_32 s25, 120(sp)
c0002b24:	5e d3 01 88 	store_32 s26, 116(sp)
c0002b28:	7e c3 01 88 	store_32 s27, 112(sp)
c0002b2c:	9e b3 01 88 	store_32 s28, 108(sp)
c0002b30:	fe a3 01 88 	store_32 ra, 104(sp)
c0002b34:	00 03 f0 c0 	move s24, s0
c0002b38:	e2 01 00 f8 	call 1928 <disable_interrupts>
c0002b3c:	20 03 f0 c0 	move s25, s0
c0002b40:	60 07 00 0f 	move s27, 1
c0002b44:	40 03 00 0f 	move s26, 0
c0002b48:	18 00 00 a8 	load_32 s0, (s24)
c0002b4c:	e0 ff ff f5 	bnz s0, -4 <rwlock_lock_read+0x30>
c0002b50:	18 00 00 aa 	load_sync s0, (s24)
c0002b54:	20 00 1d c1 	cmpne_i s1, s0, s26
c0002b58:	81 00 00 f4 	bnz s1, 16 <rwlock_lock_read+0x50>
c0002b5c:	20 80 fd c0 	move s1, s27
c0002b60:	38 00 00 8a 	store_sync s1, (s24)  
c0002b64:	61 ff ff f3 	bz s1, -20 <rwlock_lock_read+0x38>
c0002b68:	00 00 00 10 	cmpeq_i s0, s0, 0
c0002b6c:	00 04 00 01 	and s0, s0, 1
c0002b70:	c0 fe ff f3 	bz s0, -40 <rwlock_lock_read+0x30>
c0002b74:	18 60 00 a8 	load_32 s0, 24(s24)
c0002b78:	38 50 00 05 	add_i s1, s24, 20
c0002b7c:	00 80 10 c1 	cmpne_i s0, s0, s1
c0002b80:	60 00 00 f4 	bnz s0, 12 <rwlock_lock_read+0x74>
c0002b84:	18 10 00 a8 	load_32 s0, 4(s24)
c0002b88:	20 05 00 f2 	bz s0, 164 <rwlock_lock_read+0x114>
c0002b8c:	98 33 00 05 	add_i s28, s24, 12
c0002b90:	1f 05 00 f8 	call 5244 <current_thread>
c0002b94:	38 30 00 a8 	load_32 s1, 12(s24)
c0002b98:	20 00 00 88 	store_32 s1, (s0)
c0002b9c:	80 13 00 88 	store_32 s28, 4(s0)
c0002ba0:	01 10 00 88 	store_32 s0, 4(s1)
c0002ba4:	20 10 00 a8 	load_32 s1, 4(s0)
c0002ba8:	01 00 00 88 	store_32 s0, (s1)
c0002bac:	18 05 00 f8 	call 5216 <current_thread>
c0002bb0:	20 08 00 0f 	move s1, 2
c0002bb4:	20 c0 00 88 	store_32 s1, 48(s0)
c0002bb8:	58 03 00 88 	store_32 s26, (s24)
c0002bbc:	00 00 00 e8 	membar
c0002bc0:	5e 06 00 f8 	call 6520 <reschedule>
c0002bc4:	18 00 00 a8 	load_32 s0, (s24)
c0002bc8:	e0 ff ff f5 	bnz s0, -4 <rwlock_lock_read+0xAC>
c0002bcc:	18 00 00 aa 	load_sync s0, (s24)
c0002bd0:	20 00 1d c1 	cmpne_i s1, s0, s26
c0002bd4:	81 00 00 f4 	bnz s1, 16 <rwlock_lock_read+0xCC>
c0002bd8:	20 80 fd c0 	move s1, s27
c0002bdc:	38 00 00 8a 	store_sync s1, (s24)  
c0002be0:	61 ff ff f3 	bz s1, -20 <rwlock_lock_read+0xB4>
c0002be4:	40 00 00 f2 	bz s0, 8 <rwlock_lock_read+0xD4>
c0002be8:	f7 ff ff f7 	b -36 <rwlock_lock_read+0xAC>
c0002bec:	18 10 00 05 	add_i s0, s24, 4
c0002bf0:	00 00 00 a8 	load_32 s0, (s0)
c0002bf4:	40 00 00 f2 	bz s0, 8 <rwlock_lock_read+0xE4>
c0002bf8:	13 00 00 f6 	b 76 <rwlock_lock_read+0x12C>
c0002bfc:	58 03 00 88 	store_32 s26, (s24)
c0002c00:	00 00 00 e8 	membar
c0002c04:	00 80 fc c0 	move s0, s25
c0002c08:	b6 01 00 f8 	call 1752 <restore_interrupts>
c0002c0c:	fe a3 01 a8 	load_32 ra, 104(sp)
c0002c10:	9e b3 01 a8 	load_32 s28, 108(sp)
c0002c14:	7e c3 01 a8 	load_32 s27, 112(sp)
c0002c18:	5e d3 01 a8 	load_32 s26, 116(sp)
c0002c1c:	3e e3 01 a8 	load_32 s25, 120(sp)
c0002c20:	1e f3 01 a8 	load_32 s24, 124(sp)
c0002c24:	de 03 02 05 	add_i sp, sp, 128
c0002c28:	1f 00 00 f0 	ret
c0002c2c:	38 20 00 a8 	load_32 s1, 8(s24)
c0002c30:	18 10 00 05 	add_i s0, s24, 4
c0002c34:	21 04 00 05 	add_i s1, s1, 1
c0002c38:	38 20 00 88 	store_32 s1, 8(s24)
c0002c3c:	00 00 00 a8 	load_32 s0, (s0)
c0002c40:	e0 fd ff f3 	bz s0, -68 <rwlock_lock_read+0xE4>
c0002c44:	00 00 c0 4f 	movehi s0, 393216
c0002c48:	20 f4 00 0f 	move s1, 61
c0002c4c:	3e 20 00 88 	store_32 s1, 8(sp)
c0002c50:	20 00 c0 4f 	movehi s1, 393216
c0002c54:	00 70 05 00 	or s0, s0, 348
c0002c58:	1e 30 00 88 	store_32 s0, 12(sp)
c0002c5c:	00 00 c0 4f 	movehi s0, 393216
c0002c60:	21 4c 05 00 	or s1, s1, 339
c0002c64:	3e 10 00 88 	store_32 s1, 4(sp)
c0002c68:	00 e4 04 00 	or s0, s0, 313
c0002c6c:	1e 00 00 88 	store_32 s0, (sp)
c0002c70:	4a ff ff f9 	call -728 <panic>

rwlock_unlock_read:
c0002c74:	de 03 fe 05 	add_i sp, sp, -128
c0002c78:	1e f3 01 88 	store_32 s24, 124(sp)
c0002c7c:	3e e3 01 88 	store_32 s25, 120(sp)
c0002c80:	5e d3 01 88 	store_32 s26, 116(sp)
c0002c84:	fe c3 01 88 	store_32 ra, 112(sp)
c0002c88:	00 03 f0 c0 	move s24, s0
c0002c8c:	8d 01 00 f8 	call 1588 <disable_interrupts>
c0002c90:	20 03 f0 c0 	move s25, s0
c0002c94:	20 04 00 0f 	move s1, 1
c0002c98:	40 03 00 0f 	move s26, 0
c0002c9c:	18 00 00 a8 	load_32 s0, (s24)
c0002ca0:	e0 ff ff f5 	bnz s0, -4 <rwlock_unlock_read+0x28>
c0002ca4:	18 00 00 aa 	load_sync s0, (s24)
c0002ca8:	40 00 1d c1 	cmpne_i s2, s0, s26
c0002cac:	82 00 00 f4 	bnz s2, 16 <rwlock_unlock_read+0x48>
c0002cb0:	40 80 f0 c0 	move s2, s1
c0002cb4:	58 00 00 8a 	store_sync s2, (s24)  
c0002cb8:	62 ff ff f3 	bz s2, -20 <rwlock_unlock_read+0x30>
c0002cbc:	00 00 00 10 	cmpeq_i s0, s0, 0
c0002cc0:	00 04 00 01 	and s0, s0, 1
c0002cc4:	c0 fe ff f3 	bz s0, -40 <rwlock_unlock_read+0x28>
c0002cc8:	18 10 00 a8 	load_32 s0, 4(s24)
c0002ccc:	40 00 00 f2 	bz s0, 8 <rwlock_unlock_read+0x60>
c0002cd0:	1e 00 00 f6 	b 120 <rwlock_unlock_read+0xD4>
c0002cd4:	18 20 00 a8 	load_32 s0, 8(s24)
c0002cd8:	00 00 00 12 	cmpgt_i s0, s0, 0
c0002cdc:	40 00 00 f4 	bnz s0, 8 <rwlock_unlock_read+0x70>
c0002ce0:	1f 00 00 f6 	b 124 <rwlock_unlock_read+0xE8>
c0002ce4:	18 20 00 a8 	load_32 s0, 8(s24)
c0002ce8:	00 fc ff 05 	add_i s0, s0, -1
c0002cec:	18 20 00 88 	store_32 s0, 8(s24)
c0002cf0:	80 01 00 f4 	bnz s0, 48 <rwlock_unlock_read+0xAC>
c0002cf4:	18 60 00 a8 	load_32 s0, 24(s24)
c0002cf8:	58 50 00 05 	add_i s2, s24, 20
c0002cfc:	40 00 01 c1 	cmpeq_i s2, s0, s2
c0002d00:	02 01 00 f4 	bnz s2, 32 <rwlock_unlock_read+0xAC>
c0002d04:	38 10 00 88 	store_32 s1, 4(s24)
c0002d08:	20 10 00 a8 	load_32 s1, 4(s0)
c0002d0c:	40 00 00 a8 	load_32 s2, (s0)
c0002d10:	22 10 00 88 	store_32 s1, 4(s2)
c0002d14:	20 10 00 a8 	load_32 s1, 4(s0)
c0002d18:	41 00 00 88 	store_32 s2, (s1)
c0002d1c:	67 07 00 f8 	call 7580 <make_thread_ready>
c0002d20:	58 03 00 88 	store_32 s26, (s24)
c0002d24:	00 00 00 e8 	membar
c0002d28:	00 80 fc c0 	move s0, s25
c0002d2c:	6d 01 00 f8 	call 1460 <restore_interrupts>
c0002d30:	fe c3 01 a8 	load_32 ra, 112(sp)
c0002d34:	5e d3 01 a8 	load_32 s26, 116(sp)
c0002d38:	3e e3 01 a8 	load_32 s25, 120(sp)
c0002d3c:	1e f3 01 a8 	load_32 s24, 124(sp)
c0002d40:	de 03 02 05 	add_i sp, sp, 128
c0002d44:	1f 00 00 f0 	ret
c0002d48:	00 00 c0 4f 	movehi s0, 393216
c0002d4c:	20 1c 01 0f 	move s1, 71
c0002d50:	3e 20 00 88 	store_32 s1, 8(sp)
c0002d54:	00 70 05 00 	or s0, s0, 348
c0002d58:	05 00 00 f6 	b 20 <rwlock_unlock_read+0xF8>
c0002d5c:	00 00 c0 4f 	movehi s0, 393216
c0002d60:	20 20 01 0f 	move s1, 72
c0002d64:	3e 20 00 88 	store_32 s1, 8(sp)
c0002d68:	00 b4 05 00 	or s0, s0, 365
c0002d6c:	20 00 c0 4f 	movehi s1, 393216
c0002d70:	1e 30 00 88 	store_32 s0, 12(sp)
c0002d74:	00 00 c0 4f 	movehi s0, 393216
c0002d78:	21 4c 05 00 	or s1, s1, 339
c0002d7c:	3e 10 00 88 	store_32 s1, 4(sp)
c0002d80:	00 e4 04 00 	or s0, s0, 313
c0002d84:	1e 00 00 88 	store_32 s0, (sp)
c0002d88:	04 ff ff f9 	call -1008 <panic>

rwlock_lock_write:
c0002d8c:	de 03 fe 05 	add_i sp, sp, -128
c0002d90:	1e f3 01 88 	store_32 s24, 124(sp)
c0002d94:	3e e3 01 88 	store_32 s25, 120(sp)
c0002d98:	5e d3 01 88 	store_32 s26, 116(sp)
c0002d9c:	7e c3 01 88 	store_32 s27, 112(sp)
c0002da0:	9e b3 01 88 	store_32 s28, 108(sp)
c0002da4:	fe a3 01 88 	store_32 ra, 104(sp)
c0002da8:	00 03 f0 c0 	move s24, s0
c0002dac:	45 01 00 f8 	call 1300 <disable_interrupts>
c0002db0:	20 03 f0 c0 	move s25, s0
c0002db4:	40 07 00 0f 	move s26, 1
c0002db8:	60 03 00 0f 	move s27, 0
c0002dbc:	18 00 00 a8 	load_32 s0, (s24)
c0002dc0:	e0 ff ff f5 	bnz s0, -4 <rwlock_lock_write+0x30>
c0002dc4:	18 00 00 aa 	load_sync s0, (s24)
c0002dc8:	20 80 1d c1 	cmpne_i s1, s0, s27
c0002dcc:	81 00 00 f4 	bnz s1, 16 <rwlock_lock_write+0x50>
c0002dd0:	20 00 fd c0 	move s1, s26
c0002dd4:	38 00 00 8a 	store_sync s1, (s24)  
c0002dd8:	61 ff ff f3 	bz s1, -20 <rwlock_lock_write+0x38>
c0002ddc:	00 00 00 10 	cmpeq_i s0, s0, 0
c0002de0:	00 04 00 01 	and s0, s0, 1
c0002de4:	c0 fe ff f3 	bz s0, -40 <rwlock_lock_write+0x30>
c0002de8:	18 20 00 a8 	load_32 s0, 8(s24)
c0002dec:	00 00 00 12 	cmpgt_i s0, s0, 0
c0002df0:	60 00 00 f4 	bnz s0, 12 <rwlock_lock_write+0x70>
c0002df4:	18 10 00 a8 	load_32 s0, 4(s24)
c0002df8:	40 03 00 f2 	bz s0, 104 <rwlock_lock_write+0xD4>
c0002dfc:	98 53 00 05 	add_i s28, s24, 20
c0002e00:	83 04 00 f8 	call 4620 <current_thread>
c0002e04:	38 50 00 a8 	load_32 s1, 20(s24)
c0002e08:	20 00 00 88 	store_32 s1, (s0)
c0002e0c:	80 13 00 88 	store_32 s28, 4(s0)
c0002e10:	01 10 00 88 	store_32 s0, 4(s1)
c0002e14:	20 10 00 a8 	load_32 s1, 4(s0)
c0002e18:	01 00 00 88 	store_32 s0, (s1)
c0002e1c:	7c 04 00 f8 	call 4592 <current_thread>
c0002e20:	20 08 00 0f 	move s1, 2
c0002e24:	20 c0 00 88 	store_32 s1, 48(s0)
c0002e28:	78 03 00 88 	store_32 s27, (s24)
c0002e2c:	00 00 00 e8 	membar
c0002e30:	c2 05 00 f8 	call 5896 <reschedule>
c0002e34:	18 00 00 a8 	load_32 s0, (s24)
c0002e38:	e0 ff ff f5 	bnz s0, -4 <rwlock_lock_write+0xA8>
c0002e3c:	18 00 00 aa 	load_sync s0, (s24)
c0002e40:	20 80 1d c1 	cmpne_i s1, s0, s27
c0002e44:	81 00 00 f4 	bnz s1, 16 <rwlock_lock_write+0xC8>
c0002e48:	20 00 fd c0 	move s1, s26
c0002e4c:	38 00 00 8a 	store_sync s1, (s24)  
c0002e50:	61 ff ff f3 	bz s1, -20 <rwlock_lock_write+0xB0>
c0002e54:	00 00 00 10 	cmpeq_i s0, s0, 0
c0002e58:	00 04 00 01 	and s0, s0, 1
c0002e5c:	c0 fe ff f3 	bz s0, -40 <rwlock_lock_write+0xA8>
c0002e60:	18 20 00 a8 	load_32 s0, 8(s24)
c0002e64:	40 00 00 f2 	bz s0, 8 <rwlock_lock_write+0xE0>
c0002e68:	0e 00 00 f6 	b 56 <rwlock_lock_write+0x114>
c0002e6c:	58 13 00 88 	store_32 s26, 4(s24)
c0002e70:	78 03 00 88 	store_32 s27, (s24)
c0002e74:	00 00 00 e8 	membar
c0002e78:	00 80 fc c0 	move s0, s25
c0002e7c:	19 01 00 f8 	call 1124 <restore_interrupts>
c0002e80:	fe a3 01 a8 	load_32 ra, 104(sp)
c0002e84:	9e b3 01 a8 	load_32 s28, 108(sp)
c0002e88:	7e c3 01 a8 	load_32 s27, 112(sp)
c0002e8c:	5e d3 01 a8 	load_32 s26, 116(sp)
c0002e90:	3e e3 01 a8 	load_32 s25, 120(sp)
c0002e94:	1e f3 01 a8 	load_32 s24, 124(sp)
c0002e98:	de 03 02 05 	add_i sp, sp, 128
c0002e9c:	1f 00 00 f0 	ret
c0002ea0:	00 00 c0 4f 	movehi s0, 393216
c0002ea4:	20 84 01 0f 	move s1, 97
c0002ea8:	3e 20 00 88 	store_32 s1, 8(sp)
c0002eac:	20 00 c0 4f 	movehi s1, 393216
c0002eb0:	00 18 06 00 	or s0, s0, 390
c0002eb4:	1e 30 00 88 	store_32 s0, 12(sp)
c0002eb8:	00 00 c0 4f 	movehi s0, 393216
c0002ebc:	21 4c 05 00 	or s1, s1, 339
c0002ec0:	3e 10 00 88 	store_32 s1, 4(sp)
c0002ec4:	00 e4 04 00 	or s0, s0, 313
c0002ec8:	1e 00 00 88 	store_32 s0, (sp)
c0002ecc:	b3 fe ff f9 	call -1332 <panic>

rwlock_unlock_write:
c0002ed0:	de 03 fe 05 	add_i sp, sp, -128
c0002ed4:	1e f3 01 88 	store_32 s24, 124(sp)
c0002ed8:	3e e3 01 88 	store_32 s25, 120(sp)
c0002edc:	5e d3 01 88 	store_32 s26, 116(sp)
c0002ee0:	7e c3 01 88 	store_32 s27, 112(sp)
c0002ee4:	fe b3 01 88 	store_32 ra, 108(sp)
c0002ee8:	00 03 f0 c0 	move s24, s0
c0002eec:	f5 00 00 f8 	call 980 <disable_interrupts>
c0002ef0:	20 03 f0 c0 	move s25, s0
c0002ef4:	00 04 00 0f 	move s0, 1
c0002ef8:	40 03 00 0f 	move s26, 0
c0002efc:	38 00 00 a8 	load_32 s1, (s24)
c0002f00:	e1 ff ff f5 	bnz s1, -4 <rwlock_unlock_write+0x2C>
c0002f04:	38 00 00 aa 	load_sync s1, (s24)
c0002f08:	41 00 1d c1 	cmpne_i s2, s1, s26
c0002f0c:	82 00 00 f4 	bnz s2, 16 <rwlock_unlock_write+0x4C>
c0002f10:	40 00 f0 c0 	move s2, s0
c0002f14:	58 00 00 8a 	store_sync s2, (s24)  
c0002f18:	62 ff ff f3 	bz s2, -20 <rwlock_unlock_write+0x34>
c0002f1c:	21 00 00 10 	cmpeq_i s1, s1, 0
c0002f20:	21 04 00 01 	and s1, s1, 1
c0002f24:	c1 fe ff f3 	bz s1, -40 <rwlock_unlock_write+0x2C>
c0002f28:	18 10 00 a8 	load_32 s0, 4(s24)
c0002f2c:	40 00 00 f4 	bnz s0, 8 <rwlock_unlock_write+0x64>
c0002f30:	2b 00 00 f6 	b 172 <rwlock_unlock_write+0x10C>
c0002f34:	18 20 00 a8 	load_32 s0, 8(s24)
c0002f38:	40 00 00 f2 	bz s0, 8 <rwlock_unlock_write+0x70>
c0002f3c:	2d 00 00 f6 	b 180 <rwlock_unlock_write+0x120>
c0002f40:	18 40 00 a8 	load_32 s0, 16(s24)
c0002f44:	78 33 00 05 	add_i s27, s24, 12
c0002f48:	20 80 0d c1 	cmpeq_i s1, s0, s27
c0002f4c:	e1 01 00 f4 	bnz s1, 60 <rwlock_unlock_write+0xB8>
c0002f50:	20 10 00 a8 	load_32 s1, 4(s0)
c0002f54:	40 00 00 a8 	load_32 s2, (s0)
c0002f58:	22 10 00 88 	store_32 s1, 4(s2)
c0002f5c:	20 10 00 a8 	load_32 s1, 4(s0)
c0002f60:	41 00 00 88 	store_32 s2, (s1)
c0002f64:	d5 06 00 f8 	call 6996 <make_thread_ready>
c0002f68:	18 20 00 a8 	load_32 s0, 8(s24)
c0002f6c:	00 04 00 05 	add_i s0, s0, 1
c0002f70:	18 20 00 88 	store_32 s0, 8(s24)
c0002f74:	18 40 00 a8 	load_32 s0, 16(s24)
c0002f78:	20 80 1d c1 	cmpne_i s1, s0, s27
c0002f7c:	a1 fe ff f5 	bnz s1, -44 <rwlock_unlock_write+0x80>
c0002f80:	58 13 00 88 	store_32 s26, 4(s24)
c0002f84:	0b 00 00 f6 	b 44 <rwlock_unlock_write+0xE0>
c0002f88:	18 60 00 a8 	load_32 s0, 24(s24)
c0002f8c:	38 50 00 05 	add_i s1, s24, 20
c0002f90:	20 80 00 c1 	cmpeq_i s1, s0, s1
c0002f94:	61 ff ff f5 	bnz s1, -20 <rwlock_unlock_write+0xB0>
c0002f98:	20 10 00 a8 	load_32 s1, 4(s0)
c0002f9c:	40 00 00 a8 	load_32 s2, (s0)
c0002fa0:	22 10 00 88 	store_32 s1, 4(s2)
c0002fa4:	20 10 00 a8 	load_32 s1, 4(s0)
c0002fa8:	41 00 00 88 	store_32 s2, (s1)
c0002fac:	c3 06 00 f8 	call 6924 <make_thread_ready>
c0002fb0:	58 03 00 88 	store_32 s26, (s24)
c0002fb4:	00 00 00 e8 	membar
c0002fb8:	00 80 fc c0 	move s0, s25
c0002fbc:	c9 00 00 f8 	call 804 <restore_interrupts>
c0002fc0:	fe b3 01 a8 	load_32 ra, 108(sp)
c0002fc4:	7e c3 01 a8 	load_32 s27, 112(sp)
c0002fc8:	5e d3 01 a8 	load_32 s26, 116(sp)
c0002fcc:	3e e3 01 a8 	load_32 s25, 120(sp)
c0002fd0:	1e f3 01 a8 	load_32 s24, 124(sp)
c0002fd4:	de 03 02 05 	add_i sp, sp, 128
c0002fd8:	1f 00 00 f0 	ret
c0002fdc:	00 00 c0 4f 	movehi s0, 393216
c0002fe0:	20 b0 01 0f 	move s1, 108
c0002fe4:	3e 20 00 88 	store_32 s1, 8(sp)
c0002fe8:	00 80 06 00 	or s0, s0, 416
c0002fec:	05 00 00 f6 	b 20 <rwlock_unlock_write+0x130>
c0002ff0:	00 00 c0 4f 	movehi s0, 393216
c0002ff4:	20 b4 01 0f 	move s1, 109
c0002ff8:	3e 20 00 88 	store_32 s1, 8(sp)
c0002ffc:	00 18 06 00 	or s0, s0, 390
c0003000:	20 00 c0 4f 	movehi s1, 393216
c0003004:	1e 30 00 88 	store_32 s0, 12(sp)
c0003008:	00 00 c0 4f 	movehi s0, 393216
c000300c:	21 4c 05 00 	or s1, s1, 339
c0003010:	3e 10 00 88 	store_32 s1, 4(sp)
c0003014:	00 e4 04 00 	or s0, s0, 313
c0003018:	1e 00 00 88 	store_32 s0, (sp)
c000301c:	5f fe ff f9 	call -1668 <panic>

putc:
c0003020:	de 03 ff 05 	add_i sp, sp, -64
c0003024:	1e f3 00 88 	store_32 s24, 60(sp)
c0003028:	fe e3 00 88 	store_32 ra, 56(sp)
c000302c:	00 03 f0 c0 	move s24, s0
c0003030:	a4 00 00 f8 	call 656 <disable_interrupts>
c0003034:	24 00 c0 4f 	movehi s1, 393220
c0003038:	60 04 00 0f 	move s3, 1
c000303c:	40 00 00 0f 	move s2, 0
c0003040:	21 d0 42 00 	or s1, s1, 4276
c0003044:	81 00 00 a8 	load_32 s4, (s1)
c0003048:	e4 ff ff f5 	bnz s4, -4 <putc+0x24>
c000304c:	81 00 00 aa 	load_sync s4, (s1)
c0003050:	a4 00 11 c1 	cmpne_i s5, s4, s2
c0003054:	85 00 00 f4 	bnz s5, 16 <putc+0x44>
c0003058:	a0 80 f1 c0 	move s5, s3
c000305c:	a1 00 00 8a 	store_sync s5, (s1)  
c0003060:	65 ff ff f3 	bz s5, -20 <putc+0x2C>
c0003064:	84 00 00 10 	cmpeq_i s4, s4, 0
c0003068:	84 04 00 01 	and s4, s4, 1
c000306c:	c4 fe ff f3 	bz s4, -40 <putc+0x24>
c0003070:	78 fc ff 4f 	movehi s3, 524280
c0003074:	83 00 01 00 	or s4, s3, 64
c0003078:	a4 00 00 a8 	load_32 s5, (s4)
c000307c:	a5 04 00 01 	and s5, s5, 1
c0003080:	c5 ff ff f3 	bz s5, -8 <putc+0x58>
c0003084:	63 20 01 00 	or s3, s3, 72
c0003088:	03 03 00 88 	store_32 s24, (s3)
c000308c:	41 00 00 88 	store_32 s2, (s1)
c0003090:	00 00 00 e8 	membar
c0003094:	93 00 00 f8 	call 588 <restore_interrupts>
c0003098:	fe e3 00 a8 	load_32 ra, 56(sp)
c000309c:	1e f3 00 a8 	load_32 s24, 60(sp)
c00030a0:	de 03 01 05 	add_i sp, sp, 64
c00030a4:	1f 00 00 f0 	ret

trap_entry:
c00030a8:	0b 00 00 8c 	setcr s0, 11
c00030ac:	2c 00 00 8c 	setcr s1, 12
c00030b0:	08 00 00 ac 	getcr s0, 8
c00030b4:	00 10 00 01 	and s0, s0, 4
c00030b8:	60 01 00 f4 	bnz s0, 44 <is_supervisor>
c00030bc:	00 00 00 ac 	getcr s0, 0
c00030c0:	00 08 00 0b 	shl s0, s0, 2
c00030c4:	21 00 c0 4f 	movehi s1, 393217
c00030c8:	21 b0 48 00 	or s1, s1, 4652
c00030cc:	21 00 00 a8 	load_32 s1, (s1)
c00030d0:	21 00 50 c0 	add_i s1, s1, s0
c00030d4:	21 00 00 a8 	load_32 s1, (s1)
c00030d8:	c1 e3 fe 89 	store_32 sp, -72(s1)
c00030dc:	c0 83 f0 c0 	move sp, s1
c00030e0:	02 00 00 f6 	b 8 <save_frame>

is_supervisor:
c00030e4:	de e3 fe 89 	store_32 sp, -72(sp)

save_frame:
c00030e8:	0b 00 00 ac 	getcr s0, 11
c00030ec:	2c 00 00 ac 	getcr s1, 12
c00030f0:	de 03 03 06 	sub_i sp, sp, 192
c00030f4:	1e 00 00 88 	store_32 s0, (sp)
c00030f8:	3e 10 00 88 	store_32 s1, 4(sp)
c00030fc:	5e 20 00 88 	store_32 s2, 8(sp)
c0003100:	7e 30 00 88 	store_32 s3, 12(sp)
c0003104:	9e 40 00 88 	store_32 s4, 16(sp)
c0003108:	be 50 00 88 	store_32 s5, 20(sp)
c000310c:	de 60 00 88 	store_32 s6, 24(sp)
c0003110:	fe 70 00 88 	store_32 s7, 28(sp)
c0003114:	1e 81 00 88 	store_32 s8, 32(sp)
c0003118:	3e 91 00 88 	store_32 s9, 36(sp)
c000311c:	5e a1 00 88 	store_32 s10, 40(sp)
c0003120:	7e b1 00 88 	store_32 s11, 44(sp)
c0003124:	9e c1 00 88 	store_32 s12, 48(sp)
c0003128:	be d1 00 88 	store_32 s13, 52(sp)
c000312c:	de e1 00 88 	store_32 s14, 56(sp)
c0003130:	fe f1 00 88 	store_32 s15, 60(sp)
c0003134:	1e 02 01 88 	store_32 s16, 64(sp)
c0003138:	3e 12 01 88 	store_32 s17, 68(sp)
c000313c:	5e 22 01 88 	store_32 s18, 72(sp)
c0003140:	7e 32 01 88 	store_32 s19, 76(sp)
c0003144:	9e 42 01 88 	store_32 s20, 80(sp)
c0003148:	be 52 01 88 	store_32 s21, 84(sp)
c000314c:	de 62 01 88 	store_32 s22, 88(sp)
c0003150:	fe 72 01 88 	store_32 s23, 92(sp)
c0003154:	1e 83 01 88 	store_32 s24, 96(sp)
c0003158:	3e 93 01 88 	store_32 s25, 100(sp)
c000315c:	5e a3 01 88 	store_32 s26, 104(sp)
c0003160:	7e b3 01 88 	store_32 s27, 108(sp)
c0003164:	9e c3 01 88 	store_32 s28, 112(sp)
c0003168:	be d3 01 88 	store_32 fp, 116(sp)
c000316c:	fe f3 01 88 	store_32 ra, 124(sp)
c0003170:	02 00 00 ac 	getcr s0, 2
c0003174:	1e 00 02 88 	store_32 s0, 128(sp)
c0003178:	08 00 00 ac 	getcr s0, 8
c000317c:	1e 10 02 88 	store_32 s0, 132(sp)
c0003180:	0d 00 00 ac 	getcr s0, 13
c0003184:	1e 20 02 88 	store_32 s0, 136(sp)
c0003188:	00 00 ff c0 	move s0, sp
c000318c:	78 00 00 f8 	call 480 <handle_trap>
c0003190:	3e 10 00 a8 	load_32 s1, 4(sp)
c0003194:	5e 20 00 a8 	load_32 s2, 8(sp)
c0003198:	7e 30 00 a8 	load_32 s3, 12(sp)
c000319c:	9e 40 00 a8 	load_32 s4, 16(sp)
c00031a0:	be 50 00 a8 	load_32 s5, 20(sp)
c00031a4:	de 60 00 a8 	load_32 s6, 24(sp)
c00031a8:	fe 70 00 a8 	load_32 s7, 28(sp)
c00031ac:	1e 81 00 a8 	load_32 s8, 32(sp)
c00031b0:	3e 91 00 a8 	load_32 s9, 36(sp)
c00031b4:	5e a1 00 a8 	load_32 s10, 40(sp)
c00031b8:	7e b1 00 a8 	load_32 s11, 44(sp)
c00031bc:	9e c1 00 a8 	load_32 s12, 48(sp)
c00031c0:	be d1 00 a8 	load_32 s13, 52(sp)
c00031c4:	de e1 00 a8 	load_32 s14, 56(sp)
c00031c8:	fe f1 00 a8 	load_32 s15, 60(sp)
c00031cc:	1e 02 01 a8 	load_32 s16, 64(sp)
c00031d0:	3e 12 01 a8 	load_32 s17, 68(sp)
c00031d4:	5e 22 01 a8 	load_32 s18, 72(sp)
c00031d8:	7e 32 01 a8 	load_32 s19, 76(sp)
c00031dc:	9e 42 01 a8 	load_32 s20, 80(sp)
c00031e0:	be 52 01 a8 	load_32 s21, 84(sp)
c00031e4:	de 62 01 a8 	load_32 s22, 88(sp)
c00031e8:	fe 72 01 a8 	load_32 s23, 92(sp)
c00031ec:	1e 83 01 a8 	load_32 s24, 96(sp)
c00031f0:	3e 93 01 a8 	load_32 s25, 100(sp)
c00031f4:	5e a3 01 a8 	load_32 s26, 104(sp)
c00031f8:	7e b3 01 a8 	load_32 s27, 108(sp)
c00031fc:	9e c3 01 a8 	load_32 s28, 112(sp)
c0003200:	be d3 01 a8 	load_32 fp, 116(sp)
c0003204:	fe f3 01 a8 	load_32 ra, 124(sp)
c0003208:	1e 00 02 a8 	load_32 s0, 128(sp)
c000320c:	02 00 00 8c 	setcr s0, 2
c0003210:	1e 10 02 a8 	load_32 s0, 132(sp)
c0003214:	08 00 00 8c 	setcr s0, 8
c0003218:	1e 20 02 a8 	load_32 s0, 136(sp)
c000321c:	0d 00 00 8c 	setcr s0, 13
c0003220:	1e 00 00 a8 	load_32 s0, (sp)
c0003224:	de e3 01 a8 	load_32 sp, 120(sp)
c0003228:	00 00 00 fe 	eret

trap_kernel_stack_addr:
c000322c:	dc 93 00 c0 	or sp, s28, s1

jump_to_user_mode:
c0003230:	42 00 00 8c 	setcr s2, 2
c0003234:	40 0d 00 0f 	move s10, 3
c0003238:	48 01 00 8c 	setcr s10, 8
c000323c:	c0 83 f1 c0 	move sp, s3
c0003240:	00 00 00 fe 	eret

tlb_miss_handler:
c0003244:	0b 00 00 8c 	setcr s0, 11
c0003248:	2c 00 00 8c 	setcr s1, 12
c000324c:	2a 00 00 ac 	getcr s1, 10
c0003250:	05 00 00 ac 	getcr s0, 5
c0003254:	00 58 00 0a 	shr s0, s0, 22
c0003258:	00 08 00 0b 	shl s0, s0, 2
c000325c:	00 80 50 c0 	add_i s0, s0, s1
c0003260:	00 00 00 a8 	load_32 s0, (s0)
c0003264:	20 04 00 01 	and s1, s0, 1
c0003268:	81 02 00 f2 	bz s1, 80 <pte_not_present>
c000326c:	00 30 00 0a 	shr s0, s0, 12
c0003270:	00 30 00 0b 	shl s0, s0, 12
c0003274:	25 00 00 ac 	getcr s1, 5
c0003278:	21 30 00 0a 	shr s1, s1, 12
c000327c:	21 fc 0f 01 	and s1, s1, 1023
c0003280:	21 08 00 0b 	shl s1, s1, 2
c0003284:	21 00 50 c0 	add_i s1, s1, s0
c0003288:	01 00 00 a8 	load_32 s0, (s1)

update_tlb:
c000328c:	23 00 00 ac 	getcr s1, 3
c0003290:	21 80 00 01 	and s1, s1, 32
c0003294:	81 00 00 f2 	bz s1, 16 <fill_itlb>

fill_dltb:
c0003298:	25 00 00 ac 	getcr s1, 5
c000329c:	01 00 00 e0 	dtlbinsert s1, s0
c00032a0:	03 00 00 f6 	b 12 <done>

fill_itlb:
c00032a4:	25 00 00 ac 	getcr s1, 5
c00032a8:	01 00 00 ee 	itlbinsert s1, s0

done:
c00032ac:	0b 00 00 ac 	getcr s0, 11
c00032b0:	2c 00 00 ac 	getcr s1, 12
c00032b4:	00 00 00 fe 	eret

pte_not_present:
c00032b8:	00 00 00 0f 	move s0, 0
c00032bc:	f4 ff ff f7 	b -48 <update_tlb>

disable_interrupts:
c00032c0:	04 00 00 ac 	getcr s0, 4
c00032c4:	20 18 00 01 	and s1, s0, 6
c00032c8:	24 00 00 8c 	setcr s1, 4
c00032cc:	1f 00 00 f0 	ret

enable_interrupts:
c00032d0:	04 00 00 ac 	getcr s0, 4
c00032d4:	20 04 00 00 	or s1, s0, 1
c00032d8:	24 00 00 8c 	setcr s1, 4
c00032dc:	1f 00 00 f0 	ret

restore_interrupts:
c00032e0:	04 00 00 8c 	setcr s0, 4
c00032e4:	1f 00 00 f0 	ret

unmask_interrupt:
c00032e8:	24 00 c0 4f 	movehi s1, 393220
c00032ec:	40 00 00 ac 	getcr s2, 0
c00032f0:	21 e0 42 00 	or s1, s1, 4280
c00032f4:	42 08 00 0b 	shl s2, s2, 2
c00032f8:	21 00 51 c0 	add_i s1, s1, s2
c00032fc:	40 04 00 0f 	move s2, 1
c0003300:	61 00 00 a8 	load_32 s3, (s1)
c0003304:	02 00 b0 c0 	shl s0, s2, s0
c0003308:	03 00 00 c0 	or s0, s3, s0
c000330c:	01 00 00 88 	store_32 s0, (s1)
c0003310:	0e 00 00 8c 	setcr s0, 14
c0003314:	1f 00 00 f0 	ret

register_interrupt_handler:
c0003318:	44 00 c0 4f 	movehi s2, 393220
c000331c:	60 08 00 0b 	shl s3, s0, 2
c0003320:	42 e0 44 00 	or s2, s2, 4408
c0003324:	42 80 51 c0 	add_i s2, s2, s3
c0003328:	22 00 00 88 	store_32 s1, (s2)
c000332c:	24 00 c0 4f 	movehi s1, 393220
c0003330:	40 00 00 ac 	getcr s2, 0
c0003334:	21 e0 42 00 	or s1, s1, 4280
c0003338:	42 08 00 0b 	shl s2, s2, 2
c000333c:	21 00 51 c0 	add_i s1, s1, s2
c0003340:	40 04 00 0f 	move s2, 1
c0003344:	61 00 00 a8 	load_32 s3, (s1)
c0003348:	02 00 b0 c0 	shl s0, s2, s0
c000334c:	03 00 00 c0 	or s0, s3, s0
c0003350:	01 00 00 88 	store_32 s0, (s1)
c0003354:	0e 00 00 8c 	setcr s0, 14
c0003358:	1f 00 00 f0 	ret

ack_interrupt:
c000335c:	20 04 00 0f 	move s1, 1
c0003360:	01 00 b0 c0 	shl s0, s1, s0
c0003364:	0f 00 00 8c 	setcr s0, 15
c0003368:	1f 00 00 f0 	ret

handle_trap:
c000336c:	de 03 fe 05 	add_i sp, sp, -128
c0003370:	1e f3 01 88 	store_32 s24, 124(sp)
c0003374:	3e e3 01 88 	store_32 s25, 120(sp)
c0003378:	5e d3 01 88 	store_32 s26, 116(sp)
c000337c:	fe c3 01 88 	store_32 ra, 112(sp)
c0003380:	43 03 00 ac 	getcr s26, 3
c0003384:	00 03 f0 c0 	move s24, s0
c0003388:	3a 3c 00 01 	and s1, s26, 15
c000338c:	21 f4 ff 05 	add_i s1, s1, -3
c0003390:	41 14 00 16 	cmpgt_u s2, s1, 5
c0003394:	e2 09 00 f4 	bnz s2, 316 <handle_trap+0x164>
c0003398:	00 00 c0 4f 	movehi s0, 393216
c000339c:	21 08 00 0b 	shl s1, s1, 2
c00033a0:	00 30 2e 00 	or s0, s0, 2956
c00033a4:	01 00 50 c0 	add_i s0, s1, s0
c00033a8:	00 00 00 a8 	load_32 s0, (s0)
c00033ac:	00 00 00 f0 	b s0
c00033b0:	25 03 00 ac 	getcr s25, 5
c00033b4:	c7 ff ff f9 	call -228 <enable_interrupts>
c00033b8:	1a 10 00 0a 	shr s0, s26, 4
c00033bc:	20 04 00 01 	and s1, s0, 1
c00033c0:	00 80 fc c0 	move s0, s25
c00033c4:	d4 11 00 f8 	call 18256 <handle_page_fault>
c00033c8:	40 06 00 f4 	bnz s0, 200 <handle_trap+0x124>
c00033cc:	04 00 c0 4f 	movehi s0, 393220
c00033d0:	20 00 00 ac 	getcr s1, 0
c00033d4:	00 70 51 00 	or s0, s0, 5212
c00033d8:	21 08 00 0b 	shl s1, s1, 2
c00033dc:	20 80 50 c0 	add_i s1, s0, s1
c00033e0:	21 00 00 a8 	load_32 s1, (s1)
c00033e4:	61 07 00 f2 	bz s1, 236 <handle_trap+0x164>
c00033e8:	20 00 00 ac 	getcr s1, 0
c00033ec:	21 08 00 0b 	shl s1, s1, 2
c00033f0:	00 80 50 c0 	add_i s0, s0, s1
c00033f4:	00 00 00 a8 	load_32 s0, (s0)
c00033f8:	25 00 00 f6 	b 148 <handle_trap+0x120>
c00033fc:	04 00 c0 4f 	movehi s0, 393220
c0003400:	20 00 00 ac 	getcr s1, 0
c0003404:	00 e0 42 00 	or s0, s0, 4280
c0003408:	21 08 00 0b 	shl s1, s1, 2
c000340c:	00 80 50 c0 	add_i s0, s0, s1
c0003410:	30 00 00 ac 	getcr s1, 16
c0003414:	00 00 00 a8 	load_32 s0, (s0)
c0003418:	00 83 10 c0 	and s24, s0, s1
c000341c:	d8 03 00 f2 	bz s24, 120 <handle_trap+0x128>
c0003420:	04 00 c0 4f 	movehi s0, 393220
c0003424:	40 07 00 0f 	move s26, 1
c0003428:	20 e3 44 00 	or s25, s0, 4408
c000342c:	00 00 ec c0 	ctz s0, s24
c0003430:	20 08 00 0b 	shl s1, s0, 2
c0003434:	39 80 50 c0 	add_i s1, s25, s1
c0003438:	21 00 00 a8 	load_32 s1, (s1)
c000343c:	41 00 00 f4 	bnz s1, 8 <handle_trap+0xD8>
c0003440:	1b 00 00 f6 	b 108 <handle_trap+0x140>
c0003444:	1a 00 b0 c0 	shl s0, s26, s0
c0003448:	00 fc ff 03 	xor s0, s0, -1
c000344c:	18 03 10 c0 	and s24, s24, s0
c0003450:	21 00 00 fc 	call s1
c0003454:	18 02 00 f2 	bz s24, 64 <handle_trap+0x128>
c0003458:	f5 ff ff f7 	b -44 <handle_trap+0xC0>
c000345c:	05 00 00 ac 	getcr s0, 5
c0003460:	9c ff ff f9 	call -400 <enable_interrupts>
c0003464:	18 00 00 a8 	load_32 s0, (s24)
c0003468:	38 10 00 a8 	load_32 s1, 4(s24)
c000346c:	58 20 00 a8 	load_32 s2, 8(s24)
c0003470:	78 30 00 a8 	load_32 s3, 12(s24)
c0003474:	98 40 00 a8 	load_32 s4, 16(s24)
c0003478:	b8 50 00 a8 	load_32 s5, 20(s24)
c000347c:	a5 13 00 f8 	call 20116 <handle_syscall>
c0003480:	18 00 00 88 	store_32 s0, (s24)
c0003484:	18 00 02 a8 	load_32 s0, 128(s24)
c0003488:	00 10 00 05 	add_i s0, s0, 4
c000348c:	18 00 02 88 	store_32 s0, 128(s24)
c0003490:	8c ff ff f9 	call -464 <disable_interrupts>
c0003494:	fe c3 01 a8 	load_32 ra, 112(sp)
c0003498:	5e d3 01 a8 	load_32 s26, 116(sp)
c000349c:	3e e3 01 a8 	load_32 s25, 120(sp)
c00034a0:	1e f3 01 a8 	load_32 s24, 124(sp)
c00034a4:	de 03 02 05 	add_i sp, sp, 128
c00034a8:	1f 00 00 f0 	ret
c00034ac:	20 00 c0 4f 	movehi s1, 393216
c00034b0:	1e 10 00 88 	store_32 s0, 4(sp)
c00034b4:	01 e4 09 00 	or s0, s1, 633
c00034b8:	1e 00 00 88 	store_32 s0, (sp)
c00034bc:	6b fb ff f9 	call -4692 <kprintf>
c00034c0:	00 00 c0 4f 	movehi s0, 393216
c00034c4:	00 54 0a 00 	or s0, s0, 661
c00034c8:	1e 00 00 88 	store_32 s0, (sp)
c00034cc:	33 fd ff f9 	call -2868 <panic>
c00034d0:	00 00 fc c0 	move s0, s24
c00034d4:	01 00 00 f8 	call 4 <bad_fault>

bad_fault:
c00034d8:	de 03 fe 05 	add_i sp, sp, -128
c00034dc:	1e f3 01 88 	store_32 s24, 124(sp)
c00034e0:	3e e3 01 88 	store_32 s25, 120(sp)
c00034e4:	fe d3 01 88 	store_32 ra, 116(sp)
c00034e8:	00 03 f0 c0 	move s24, s0
c00034ec:	18 10 02 a8 	load_32 s0, 132(s24)
c00034f0:	20 13 00 01 	and s25, s0, 4
c00034f4:	c6 02 00 f8 	call 2840 <current_thread>
c00034f8:	00 40 00 a8 	load_32 s0, 16(s0)
c00034fc:	59 00 00 f2 	bz s25, 8 <bad_fault+0x2C>
c0003500:	0a 00 00 f6 	b 40 <bad_fault+0x50>
c0003504:	20 00 c0 4f 	movehi s1, 393216
c0003508:	1e 10 00 88 	store_32 s0, 4(sp)
c000350c:	01 6c 09 00 	or s0, s1, 603
c0003510:	1e 00 00 88 	store_32 s0, (sp)
c0003514:	55 fb ff f9 	call -4780 <kprintf>
c0003518:	00 00 fc c0 	move s0, s24
c000351c:	0e 00 00 f8 	call 56 <dump_interrupt_frame>
c0003520:	00 04 00 0f 	move s0, 1
c0003524:	3b 05 00 f8 	call 5356 <thread_exit>
c0003528:	20 00 c0 4f 	movehi s1, 393216
c000352c:	1e 10 00 88 	store_32 s0, 4(sp)
c0003530:	01 b4 08 00 	or s0, s1, 557
c0003534:	1e 00 00 88 	store_32 s0, (sp)
c0003538:	4c fb ff f9 	call -4816 <kprintf>
c000353c:	00 00 fc c0 	move s0, s24
c0003540:	05 00 00 f8 	call 20 <dump_interrupt_frame>
c0003544:	00 00 c0 4f 	movehi s0, 393216
c0003548:	00 48 09 00 	or s0, s0, 594
c000354c:	1e 00 00 88 	store_32 s0, (sp)
c0003550:	12 fd ff f9 	call -3000 <panic>

dump_interrupt_frame:
c0003554:	de 03 fe 05 	add_i sp, sp, -128
c0003558:	1e f3 01 88 	store_32 s24, 124(sp)
c000355c:	3e e3 01 88 	store_32 s25, 120(sp)
c0003560:	5e d3 01 88 	store_32 s26, 116(sp)
c0003564:	7e c3 01 88 	store_32 s27, 112(sp)
c0003568:	9e b3 01 88 	store_32 s28, 108(sp)
c000356c:	fe a3 01 88 	store_32 ra, 104(sp)
c0003570:	43 03 00 ac 	getcr s26, 3
c0003574:	00 03 f0 c0 	move s24, s0
c0003578:	25 03 00 ac 	getcr s25, 5
c000357c:	7a 3f 00 01 	and s27, s26, 15
c0003580:	1b 28 00 16 	cmpgt_u s0, s27, 10
c0003584:	00 03 00 f4 	bnz s0, 96 <dump_interrupt_frame+0x90>
c0003588:	00 00 c0 4f 	movehi s0, 393216
c000358c:	3b 08 00 0b 	shl s1, s27, 2
c0003590:	00 90 2e 00 	or s0, s0, 2980
c0003594:	00 80 50 c0 	add_i s0, s0, s1
c0003598:	20 00 c0 4f 	movehi s1, 393216
c000359c:	00 00 00 a8 	load_32 s0, (s0)
c00035a0:	21 c0 06 00 	or s1, s1, 432
c00035a4:	3e 00 00 88 	store_32 s1, (sp)
c00035a8:	1e 10 00 88 	store_32 s0, 4(sp)
c00035ac:	2f fb ff f9 	call -4932 <kprintf>
c00035b0:	1b 24 00 16 	cmpgt_u s0, s27, 9
c00035b4:	40 04 00 f4 	bnz s0, 136 <dump_interrupt_frame+0xE8>
c00035b8:	00 04 00 0f 	move s0, 1
c00035bc:	00 80 bd c0 	shl s0, s0, s27
c00035c0:	00 80 0b 01 	and s0, s0, 736
c00035c4:	40 00 00 f4 	bnz s0, 8 <dump_interrupt_frame+0x78>
c00035c8:	1d 00 00 f6 	b 116 <dump_interrupt_frame+0xE8>
c00035cc:	1a 80 00 01 	and s0, s26, 32
c00035d0:	00 00 00 10 	cmpeq_i s0, s0, 0
c00035d4:	20 01 00 f4 	bnz s0, 36 <dump_interrupt_frame+0xA4>
c00035d8:	00 00 c0 4f 	movehi s0, 393216
c00035dc:	00 04 07 00 	or s0, s0, 449
c00035e0:	08 00 00 f6 	b 32 <dump_interrupt_frame+0xAC>
c00035e4:	00 00 c0 4f 	movehi s0, 393216
c00035e8:	5e 13 00 88 	store_32 s26, 4(sp)
c00035ec:	00 68 07 00 	or s0, s0, 474
c00035f0:	1e 00 00 88 	store_32 s0, (sp)
c00035f4:	11 00 00 f6 	b 68 <dump_interrupt_frame+0xE4>
c00035f8:	00 00 c0 4f 	movehi s0, 393216
c00035fc:	00 20 07 00 	or s0, s0, 456
c0003600:	3a 40 00 01 	and s1, s26, 16
c0003604:	21 00 00 10 	cmpeq_i s1, s1, 0
c0003608:	81 00 00 f4 	bnz s1, 16 <dump_interrupt_frame+0xC4>
c000360c:	20 00 c0 4f 	movehi s1, 393216
c0003610:	21 3c 07 00 	or s1, s1, 463
c0003614:	03 00 00 f6 	b 12 <dump_interrupt_frame+0xCC>
c0003618:	20 00 c0 4f 	movehi s1, 393216
c000361c:	21 54 07 00 	or s1, s1, 469
c0003620:	40 00 c0 4f 	movehi s2, 393216
c0003624:	3e 13 00 88 	store_32 s25, 4(sp)
c0003628:	42 d0 06 00 	or s2, s2, 436
c000362c:	5e 00 00 88 	store_32 s2, (sp)
c0003630:	3e 30 00 88 	store_32 s1, 12(sp)
c0003634:	1e 20 00 88 	store_32 s0, 8(sp)
c0003638:	0c fb ff f9 	call -5072 <kprintf>
c000363c:	00 00 c0 4f 	movehi s0, 393216
c0003640:	00 cc 07 00 	or s0, s0, 499
c0003644:	1e 00 00 88 	store_32 s0, (sp)
c0003648:	08 fb ff f9 	call -5088 <kprintf>
c000364c:	00 00 c0 4f 	movehi s0, 393216
c0003650:	20 00 c0 4f 	movehi s1, 393216
c0003654:	40 00 c0 4f 	movehi s2, 393216
c0003658:	20 03 00 0f 	move s25, 0
c000365c:	40 fb 07 00 	or s26, s0, 510
c0003660:	61 03 08 00 	or s27, s1, 512
c0003664:	82 2b 08 00 	or s28, s2, 522
c0003668:	19 24 00 16 	cmpgt_u s0, s25, 9
c000366c:	60 00 00 f4 	bnz s0, 12 <dump_interrupt_frame+0x124>
c0003670:	5e 03 00 88 	store_32 s26, (sp)
c0003674:	fd fa ff f9 	call -5132 <kprintf>
c0003678:	19 08 00 0b 	shl s0, s25, 2
c000367c:	18 00 50 c0 	add_i s0, s24, s0
c0003680:	00 00 00 a8 	load_32 s0, (s0)
c0003684:	1e 20 00 88 	store_32 s0, 8(sp)
c0003688:	3e 13 00 88 	store_32 s25, 4(sp)
c000368c:	7e 03 00 88 	store_32 s27, (sp)
c0003690:	f6 fa ff f9 	call -5160 <kprintf>
c0003694:	19 7c 00 09 	ashr s0, s25, 31
c0003698:	00 74 00 0a 	shr s0, s0, 29
c000369c:	19 00 50 c0 	add_i s0, s25, s0
c00036a0:	00 e0 ff 01 	and s0, s0, -8
c00036a4:	19 00 60 c0 	sub_i s0, s25, s0
c00036a8:	00 1c 00 11 	cmpne_i s0, s0, 7
c00036ac:	60 00 00 f4 	bnz s0, 12 <dump_interrupt_frame+0x164>
c00036b0:	9e 03 00 88 	store_32 s28, (sp)
c00036b4:	ed fa ff f9 	call -5196 <kprintf>
c00036b8:	19 7c 00 18 	cmplt_u s0, s25, 31
c00036bc:	39 07 00 05 	add_i s25, s25, 1
c00036c0:	40 fd ff f5 	bnz s0, -88 <dump_interrupt_frame+0x114>
c00036c4:	20 00 c0 4f 	movehi s1, 393216
c00036c8:	18 00 02 a8 	load_32 s0, 128(s24)
c00036cc:	1e 10 00 88 	store_32 s0, 4(sp)
c00036d0:	01 30 08 00 	or s0, s1, 524
c00036d4:	1e 00 00 88 	store_32 s0, (sp)
c00036d8:	e4 fa ff f9 	call -5232 <kprintf>
c00036dc:	00 00 c0 4f 	movehi s0, 393216
c00036e0:	00 54 08 00 	or s0, s0, 533
c00036e4:	1e 00 00 88 	store_32 s0, (sp)
c00036e8:	e0 fa ff f9 	call -5248 <kprintf>
c00036ec:	18 10 02 a8 	load_32 s0, 132(s24)
c00036f0:	20 04 00 01 	and s1, s0, 1
c00036f4:	41 00 00 f2 	bz s1, 8 <dump_interrupt_frame+0x1A8>
c00036f8:	18 00 00 f6 	b 96 <dump_interrupt_frame+0x204>
c00036fc:	20 08 00 01 	and s1, s0, 2
c0003700:	41 00 00 f2 	bz s1, 8 <dump_interrupt_frame+0x1B4>
c0003704:	1c 00 00 f6 	b 112 <dump_interrupt_frame+0x220>
c0003708:	20 10 00 01 	and s1, s0, 4
c000370c:	c1 00 00 f2 	bz s1, 24 <dump_interrupt_frame+0x1D0>
c0003710:	00 00 c0 4f 	movehi s0, 393216
c0003714:	00 84 08 00 	or s0, s0, 545
c0003718:	1e 00 00 88 	store_32 s0, (sp)
c000371c:	d3 fa ff f9 	call -5300 <kprintf>
c0003720:	18 10 02 a8 	load_32 s0, 132(s24)
c0003724:	20 00 c0 4f 	movehi s1, 393216
c0003728:	1e 10 00 88 	store_32 s0, 4(sp)
c000372c:	01 8c 08 00 	or s0, s1, 547
c0003730:	1e 00 00 88 	store_32 s0, (sp)
c0003734:	cd fa ff f9 	call -5324 <kprintf>
c0003738:	fe a3 01 a8 	load_32 ra, 104(sp)
c000373c:	9e b3 01 a8 	load_32 s28, 108(sp)
c0003740:	7e c3 01 a8 	load_32 s27, 112(sp)
c0003744:	5e d3 01 a8 	load_32 s26, 116(sp)
c0003748:	3e e3 01 a8 	load_32 s25, 120(sp)
c000374c:	1e f3 01 a8 	load_32 s24, 124(sp)
c0003750:	de 03 02 05 	add_i sp, sp, 128
c0003754:	1f 00 00 f0 	ret
c0003758:	00 00 c0 4f 	movehi s0, 393216
c000375c:	00 74 08 00 	or s0, s0, 541
c0003760:	1e 00 00 88 	store_32 s0, (sp)
c0003764:	c1 fa ff f9 	call -5372 <kprintf>
c0003768:	18 10 02 a8 	load_32 s0, 132(s24)
c000376c:	20 08 00 01 	and s1, s0, 2
c0003770:	c1 fc ff f3 	bz s1, -104 <dump_interrupt_frame+0x1B4>
c0003774:	00 00 c0 4f 	movehi s0, 393216
c0003778:	00 7c 08 00 	or s0, s0, 543
c000377c:	1e 00 00 88 	store_32 s0, (sp)
c0003780:	ba fa ff f9 	call -5400 <kprintf>
c0003784:	18 10 02 a8 	load_32 s0, 132(s24)
c0003788:	20 10 00 01 	and s1, s0, 4
c000378c:	c1 fc ff f3 	bz s1, -104 <dump_interrupt_frame+0x1D0>
c0003790:	e0 ff ff f7 	b -128 <dump_interrupt_frame+0x1BC>

boot_init_heap:
c0003794:	24 00 c0 4f 	movehi s1, 393220
c0003798:	21 e0 45 00 	or s1, s1, 4472
c000379c:	01 00 00 88 	store_32 s0, (s1)
c00037a0:	1f 00 00 f0 	ret

kmalloc:
c00037a4:	de 03 ff 05 	add_i sp, sp, -64
c00037a8:	1e f3 00 88 	store_32 s24, 60(sp)
c00037ac:	3e e3 00 88 	store_32 s25, 56(sp)
c00037b0:	5e d3 00 88 	store_32 s26, 52(sp)
c00037b4:	7e c3 00 88 	store_32 s27, 48(sp)
c00037b8:	9e b3 00 88 	store_32 s28, 44(sp)
c00037bc:	fe a3 00 88 	store_32 ra, 40(sp)
c00037c0:	40 03 f0 c0 	move s26, s0
c00037c4:	bf fe ff f9 	call -1284 <disable_interrupts>
c00037c8:	24 00 c0 4f 	movehi s1, 393220
c00037cc:	60 04 00 0f 	move s3, 1
c00037d0:	e0 00 00 0f 	move s7, 0
c00037d4:	01 f3 45 00 	or s24, s1, 4476
c00037d8:	38 00 00 a8 	load_32 s1, (s24)
c00037dc:	e1 ff ff f5 	bnz s1, -4 <kmalloc+0x34>
c00037e0:	38 00 00 aa 	load_sync s1, (s24)
c00037e4:	41 80 13 c1 	cmpne_i s2, s1, s7
c00037e8:	82 00 00 f4 	bnz s2, 16 <kmalloc+0x54>
c00037ec:	40 80 f1 c0 	move s2, s3
c00037f0:	58 00 00 8a 	store_sync s2, (s24)  
c00037f4:	62 ff ff f3 	bz s2, -20 <kmalloc+0x3C>
c00037f8:	21 00 00 10 	cmpeq_i s1, s1, 0
c00037fc:	21 04 00 01 	and s1, s1, 1
c0003800:	c1 fe ff f3 	bz s1, -40 <kmalloc+0x34>
c0003804:	84 00 c0 4f 	movehi s4, 393220
c0003808:	64 00 46 00 	or s3, s4, 4480
c000380c:	23 03 00 a8 	load_32 s25, (s3)
c0003810:	b9 02 00 f2 	bz s25, 84 <kmalloc+0xC0>
c0003814:	39 10 00 a8 	load_32 s1, 4(s25)
c0003818:	41 00 1d c1 	cmpne_i s2, s1, s26
c000381c:	42 00 00 f4 	bnz s2, 8 <kmalloc+0x80>
c0003820:	08 00 00 f6 	b 32 <kmalloc+0x9C>
c0003824:	21 00 9d c1 	cmple_u s1, s1, s26
c0003828:	41 00 00 f4 	bnz s1, 8 <kmalloc+0x8C>
c000382c:	09 00 00 f6 	b 36 <kmalloc+0xAC>
c0003830:	60 80 fc c0 	move s3, s25
c0003834:	39 03 00 a8 	load_32 s25, (s25)
c0003838:	79 01 00 f2 	bz s25, 44 <kmalloc+0xC0>
c000383c:	f6 ff ff f7 	b -40 <kmalloc+0x70>
c0003840:	39 00 00 a8 	load_32 s1, (s25)
c0003844:	23 00 00 88 	store_32 s1, (s3)
c0003848:	d9 0a 00 f4 	bnz s25, 344 <kmalloc+0x1FC>
c000384c:	06 00 00 f6 	b 24 <kmalloc+0xC0>
c0003850:	39 00 5d c0 	add_i s1, s25, s26
c0003854:	59 00 00 a8 	load_32 s2, (s25)
c0003858:	41 00 00 88 	store_32 s2, (s1)
c000385c:	23 00 00 88 	store_32 s1, (s3)
c0003860:	19 0a 00 f4 	bnz s25, 320 <kmalloc+0x1FC>
c0003864:	5e 93 00 88 	store_32 s26, 36(sp)
c0003868:	5a 07 00 0b 	shl s26, s26, 1
c000386c:	48 00 00 4f 	movehi s2, 8
c0003870:	3a 00 61 c1 	cmpgt_u s1, s26, s2
c0003874:	41 00 00 f4 	bnz s1, 8 <kmalloc+0xD8>
c0003878:	40 03 f1 c0 	move s26, s2
c000387c:	9e 80 00 88 	store_32 s4, 32(sp)
c0003880:	fe 60 00 88 	store_32 s7, 24(sp)
c0003884:	1e 70 00 88 	store_32 s0, 28(sp)
c0003888:	04 00 c0 4f 	movehi s0, 393220
c000388c:	60 e0 45 00 	or s3, s0, 4472
c0003890:	63 03 00 a8 	load_32 s27, (s3)
c0003894:	5b 00 5d c0 	add_i s2, s27, s26
c0003898:	1b 00 71 c1 	cmpge_u s0, s27, s2
c000389c:	00 02 00 f4 	bnz s0, 64 <kmalloc+0x138>
c00038a0:	80 03 00 0f 	move s28, 0
c00038a4:	20 83 f1 c0 	move s25, s3
c00038a8:	a5 0b 00 f8 	call 11924 <vm_allocate_page>
c00038ac:	3d 0c 00 f8 	call 12532 <page_to_pa>
c00038b0:	40 6c 00 00 	or s2, s0, 27
c00038b4:	00 00 fe c0 	move s0, s28
c00038b8:	20 80 fd c0 	move s1, s27
c00038bc:	96 0a 00 f8 	call 10840 <vm_map_page>
c00038c0:	60 80 fc c0 	move s3, s25
c00038c4:	7b 03 40 05 	add_i s27, s27, 4096
c00038c8:	23 03 00 a8 	load_32 s25, (s3)
c00038cc:	59 00 5d c0 	add_i s2, s25, s26
c00038d0:	1b 00 81 c1 	cmplt_u s0, s27, s2
c00038d4:	80 fe ff f5 	bnz s0, -48 <kmalloc+0x100>
c00038d8:	02 00 00 f6 	b 8 <kmalloc+0x13C>
c00038dc:	20 83 fd c0 	move s25, s27
c00038e0:	1e 90 00 a8 	load_32 s0, 36(sp)
c00038e4:	39 00 50 c0 	add_i s1, s25, s0
c00038e8:	da 00 60 c0 	sub_i s6, s26, s0
c00038ec:	1e 80 00 a8 	load_32 s0, 32(sp)
c00038f0:	c1 10 00 88 	store_32 s6, 4(s1)
c00038f4:	43 00 00 88 	store_32 s2, (s3)
c00038f8:	80 00 46 00 	or s4, s0, 4480
c00038fc:	a4 00 00 a8 	load_32 s5, (s4)
c0003900:	e5 01 00 f2 	bz s5, 60 <kmalloc+0x198>
c0003904:	45 80 60 c1 	cmpgt_u s2, s5, s1
c0003908:	a2 01 00 f4 	bnz s2, 52 <kmalloc+0x198>
c000390c:	fe 60 00 a8 	load_32 s7, 24(sp)
c0003910:	60 00 00 0f 	move s3, 0
c0003914:	40 80 f2 c0 	move s2, s5
c0003918:	a2 00 00 a8 	load_32 s5, (s2)
c000391c:	c5 00 00 f2 	bz s5, 24 <kmalloc+0x190>
c0003920:	82 80 70 c1 	cmpge_u s4, s2, s1
c0003924:	84 ff ff f5 	bnz s4, -16 <kmalloc+0x170>
c0003928:	85 80 90 c1 	cmple_u s4, s5, s1
c000392c:	44 ff ff f5 	bnz s4, -24 <kmalloc+0x170>
c0003930:	60 80 f2 c0 	move s3, s5
c0003934:	80 00 f1 c0 	move s4, s2
c0003938:	04 00 00 f6 	b 16 <kmalloc+0x1A4>
c000393c:	60 80 f2 c0 	move s3, s5
c0003940:	fe 60 00 a8 	load_32 s7, 24(sp)
c0003944:	40 80 f3 c0 	move s2, s7
c0003948:	61 00 00 88 	store_32 s3, (s1)
c000394c:	24 00 00 88 	store_32 s1, (s4)
c0003950:	61 00 00 a8 	load_32 s3, (s1)
c0003954:	e3 01 00 f2 	bz s3, 60 <kmalloc+0x1EC>
c0003958:	81 00 53 c0 	add_i s4, s1, s6
c000395c:	84 80 11 c1 	cmpne_i s4, s4, s3
c0003960:	44 00 00 f4 	bnz s4, 8 <kmalloc+0x1C4>
c0003964:	1b 00 00 f6 	b 108 <kmalloc+0x22C>
c0003968:	a2 01 00 f2 	bz s2, 52 <kmalloc+0x1F8>
c000396c:	82 10 00 a8 	load_32 s4, 4(s2)
c0003970:	1e 70 00 a8 	load_32 s0, 28(sp)
c0003974:	a2 00 52 c0 	add_i s5, s2, s4
c0003978:	25 80 10 c1 	cmpne_i s1, s5, s1
c000397c:	21 01 00 f4 	bnz s1, 36 <kmalloc+0x1FC>
c0003980:	62 00 00 88 	store_32 s3, (s2)
c0003984:	26 00 52 c0 	add_i s1, s6, s4
c0003988:	22 10 00 88 	store_32 s1, 4(s2)
c000398c:	05 00 00 f6 	b 20 <kmalloc+0x1FC>
c0003990:	60 80 f3 c0 	move s3, s7
c0003994:	42 00 00 f2 	bz s2, 8 <kmalloc+0x1F8>
c0003998:	f5 ff ff f7 	b -44 <kmalloc+0x1C8>
c000399c:	1e 70 00 a8 	load_32 s0, 28(sp)
c00039a0:	f8 00 00 88 	store_32 s7, (s24)
c00039a4:	00 00 00 e8 	membar
c00039a8:	4e fe ff f9 	call -1736 <restore_interrupts>
c00039ac:	00 80 fc c0 	move s0, s25
c00039b0:	fe a3 00 a8 	load_32 ra, 40(sp)
c00039b4:	9e b3 00 a8 	load_32 s28, 44(sp)
c00039b8:	7e c3 00 a8 	load_32 s27, 48(sp)
c00039bc:	5e d3 00 a8 	load_32 s26, 52(sp)
c00039c0:	3e e3 00 a8 	load_32 s25, 56(sp)
c00039c4:	1e f3 00 a8 	load_32 s24, 60(sp)
c00039c8:	de 03 01 05 	add_i sp, sp, 64
c00039cc:	1f 00 00 f0 	ret
c00039d0:	83 10 00 a8 	load_32 s4, 4(s3)
c00039d4:	c4 00 53 c0 	add_i s6, s4, s6
c00039d8:	c1 10 00 88 	store_32 s6, 4(s1)
c00039dc:	63 00 00 a8 	load_32 s3, (s3)
c00039e0:	61 00 00 88 	store_32 s3, (s1)
c00039e4:	c2 fd ff f3 	bz s2, -72 <kmalloc+0x1F8>
c00039e8:	e1 ff ff f7 	b -124 <kmalloc+0x1C8>

kfree:
c00039ec:	de 03 ff 05 	add_i sp, sp, -64
c00039f0:	1e f3 00 88 	store_32 s24, 60(sp)
c00039f4:	fe e3 00 88 	store_32 ra, 56(sp)
c00039f8:	00 03 f0 c0 	move s24, s0
c00039fc:	38 10 00 88 	store_32 s1, 4(s24)
c0003a00:	30 fe ff f9 	call -1856 <disable_interrupts>
c0003a04:	24 00 c0 4f 	movehi s1, 393220
c0003a08:	60 04 00 0f 	move s3, 1
c0003a0c:	40 00 00 0f 	move s2, 0
c0003a10:	21 f0 45 00 	or s1, s1, 4476
c0003a14:	81 00 00 a8 	load_32 s4, (s1)
c0003a18:	e4 ff ff f5 	bnz s4, -4 <kfree+0x28>
c0003a1c:	81 00 00 aa 	load_sync s4, (s1)
c0003a20:	a4 00 11 c1 	cmpne_i s5, s4, s2
c0003a24:	85 00 00 f4 	bnz s5, 16 <kfree+0x48>
c0003a28:	a0 80 f1 c0 	move s5, s3
c0003a2c:	a1 00 00 8a 	store_sync s5, (s1)  
c0003a30:	65 ff ff f3 	bz s5, -20 <kfree+0x30>
c0003a34:	84 00 00 10 	cmpeq_i s4, s4, 0
c0003a38:	84 04 00 01 	and s4, s4, 1
c0003a3c:	c4 fe ff f3 	bz s4, -40 <kfree+0x28>
c0003a40:	64 00 c0 4f 	movehi s3, 393220
c0003a44:	a3 00 46 00 	or s5, s3, 4480
c0003a48:	85 00 00 a8 	load_32 s4, (s5)
c0003a4c:	84 01 00 f2 	bz s4, 48 <kfree+0x90>
c0003a50:	64 00 6c c1 	cmpgt_u s3, s4, s24
c0003a54:	43 01 00 f4 	bnz s3, 40 <kfree+0x90>
c0003a58:	a0 00 00 0f 	move s5, 0
c0003a5c:	60 00 f2 c0 	move s3, s4
c0003a60:	83 00 00 a8 	load_32 s4, (s3)
c0003a64:	04 01 00 f2 	bz s4, 32 <kfree+0x98>
c0003a68:	c3 00 7c c1 	cmpge_u s6, s3, s24
c0003a6c:	86 ff ff f5 	bnz s6, -16 <kfree+0x70>
c0003a70:	c4 00 9c c1 	cmple_u s6, s4, s24
c0003a74:	46 ff ff f5 	bnz s6, -24 <kfree+0x70>
c0003a78:	04 00 00 f6 	b 16 <kfree+0x9C>
c0003a7c:	60 00 f1 c0 	move s3, s2
c0003a80:	03 00 00 f6 	b 12 <kfree+0xA0>
c0003a84:	80 80 f2 c0 	move s4, s5
c0003a88:	a0 80 f1 c0 	move s5, s3
c0003a8c:	98 00 00 88 	store_32 s4, (s24)
c0003a90:	05 03 00 88 	store_32 s24, (s5)
c0003a94:	98 00 00 a8 	load_32 s4, (s24)
c0003a98:	e4 00 00 f2 	bz s4, 28 <kfree+0xC8>
c0003a9c:	58 10 00 a8 	load_32 s2, 4(s24)
c0003aa0:	b8 00 51 c0 	add_i s5, s24, s2
c0003aa4:	a5 00 12 c1 	cmpne_i s5, s5, s4
c0003aa8:	45 00 00 f4 	bnz s5, 8 <kfree+0xC4>
c0003aac:	0c 00 00 f6 	b 48 <kfree+0xF0>
c0003ab0:	40 00 f2 c0 	move s2, s4
c0003ab4:	23 02 00 f2 	bz s3, 68 <kfree+0x10C>
c0003ab8:	83 10 00 a8 	load_32 s4, 4(s3)
c0003abc:	a3 00 52 c0 	add_i s5, s3, s4
c0003ac0:	a5 00 1c c1 	cmpne_i s5, s5, s24
c0003ac4:	a5 01 00 f4 	bnz s5, 52 <kfree+0x10C>
c0003ac8:	43 00 00 88 	store_32 s2, (s3)
c0003acc:	58 10 00 a8 	load_32 s2, 4(s24)
c0003ad0:	42 00 52 c0 	add_i s2, s2, s4
c0003ad4:	43 10 00 88 	store_32 s2, 4(s3)
c0003ad8:	08 00 00 f6 	b 32 <kfree+0x10C>
c0003adc:	a4 10 00 a8 	load_32 s5, 4(s4)
c0003ae0:	45 00 51 c0 	add_i s2, s5, s2
c0003ae4:	58 10 00 88 	store_32 s2, 4(s24)
c0003ae8:	44 00 00 a8 	load_32 s2, (s4)
c0003aec:	58 00 00 88 	store_32 s2, (s24)
c0003af0:	43 00 00 f2 	bz s3, 8 <kfree+0x10C>
c0003af4:	f1 ff ff f7 	b -60 <kfree+0xCC>
c0003af8:	40 00 00 0f 	move s2, 0
c0003afc:	41 00 00 88 	store_32 s2, (s1)
c0003b00:	00 00 00 e8 	membar
c0003b04:	f7 fd ff f9 	call -2084 <restore_interrupts>
c0003b08:	fe e3 00 a8 	load_32 ra, 56(sp)
c0003b0c:	1e f3 00 a8 	load_32 s24, 60(sp)
c0003b10:	de 03 01 05 	add_i sp, sp, 64
c0003b14:	1f 00 00 f0 	ret

slab_alloc:
c0003b18:	de 03 ff 05 	add_i sp, sp, -64
c0003b1c:	1e f3 00 88 	store_32 s24, 60(sp)
c0003b20:	3e e3 00 88 	store_32 s25, 56(sp)
c0003b24:	5e d3 00 88 	store_32 s26, 52(sp)
c0003b28:	7e c3 00 88 	store_32 s27, 48(sp)
c0003b2c:	9e b3 00 88 	store_32 s28, 44(sp)
c0003b30:	fe a3 00 88 	store_32 ra, 40(sp)
c0003b34:	00 03 f0 c0 	move s24, s0
c0003b38:	e2 fd ff f9 	call -2168 <disable_interrupts>
c0003b3c:	20 03 f0 c0 	move s25, s0
c0003b40:	00 04 00 0f 	move s0, 1
c0003b44:	60 03 00 0f 	move s27, 0
c0003b48:	38 00 00 a8 	load_32 s1, (s24)
c0003b4c:	e1 ff ff f5 	bnz s1, -4 <slab_alloc+0x30>
c0003b50:	38 00 00 aa 	load_sync s1, (s24)
c0003b54:	41 80 1d c1 	cmpne_i s2, s1, s27
c0003b58:	82 00 00 f4 	bnz s2, 16 <slab_alloc+0x50>
c0003b5c:	40 00 f0 c0 	move s2, s0
c0003b60:	58 00 00 8a 	store_sync s2, (s24)  
c0003b64:	62 ff ff f3 	bz s2, -20 <slab_alloc+0x38>
c0003b68:	21 00 00 10 	cmpeq_i s1, s1, 0
c0003b6c:	21 04 00 01 	and s1, s1, 1
c0003b70:	c1 fe ff f3 	bz s1, -40 <slab_alloc+0x30>
c0003b74:	58 23 00 a8 	load_32 s26, 8(s24)
c0003b78:	9a 00 00 f2 	bz s26, 16 <slab_alloc+0x70>
c0003b7c:	1a 00 00 a8 	load_32 s0, (s26)
c0003b80:	18 20 00 88 	store_32 s0, 8(s24)
c0003b84:	17 00 00 f6 	b 92 <slab_alloc+0xC8>
c0003b88:	18 30 00 a8 	load_32 s0, 12(s24)
c0003b8c:	40 00 00 f4 	bnz s0, 8 <slab_alloc+0x7C>
c0003b90:	09 00 00 f6 	b 36 <slab_alloc+0x9C>
c0003b94:	78 40 00 a8 	load_32 s3, 16(s24)
c0003b98:	98 43 00 05 	add_i s28, s24, 16
c0003b9c:	58 10 00 a8 	load_32 s2, 4(s24)
c0003ba0:	38 50 00 a8 	load_32 s1, 20(s24)
c0003ba4:	82 80 51 c0 	add_i s4, s2, s3
c0003ba8:	84 80 90 c1 	cmple_u s4, s4, s1
c0003bac:	44 01 00 f4 	bnz s4, 40 <slab_alloc+0xBC>
c0003bb0:	03 00 00 f6 	b 12 <slab_alloc+0xA4>
c0003bb4:	38 50 00 a8 	load_32 s1, 20(s24)
c0003bb8:	98 43 00 05 	add_i s28, s24, 16
c0003bbc:	00 80 f0 c0 	move s0, s1
c0003bc0:	f9 fe ff f9 	call -1052 <kmalloc>
c0003bc4:	18 30 00 88 	store_32 s0, 12(s24)
c0003bc8:	78 43 00 88 	store_32 s27, 16(s24)
c0003bcc:	58 10 00 a8 	load_32 s2, 4(s24)
c0003bd0:	60 80 fd c0 	move s3, s27
c0003bd4:	40 83 51 c0 	add_i s26, s0, s3
c0003bd8:	02 80 51 c0 	add_i s0, s2, s3
c0003bdc:	1c 00 00 88 	store_32 s0, (s28)
c0003be0:	78 03 00 88 	store_32 s27, (s24)
c0003be4:	00 00 00 e8 	membar
c0003be8:	00 80 fc c0 	move s0, s25
c0003bec:	bd fd ff f9 	call -2316 <restore_interrupts>
c0003bf0:	00 00 fd c0 	move s0, s26
c0003bf4:	fe a3 00 a8 	load_32 ra, 40(sp)
c0003bf8:	9e b3 00 a8 	load_32 s28, 44(sp)
c0003bfc:	7e c3 00 a8 	load_32 s27, 48(sp)
c0003c00:	5e d3 00 a8 	load_32 s26, 52(sp)
c0003c04:	3e e3 00 a8 	load_32 s25, 56(sp)
c0003c08:	1e f3 00 a8 	load_32 s24, 60(sp)
c0003c0c:	de 03 01 05 	add_i sp, sp, 64
c0003c10:	1f 00 00 f0 	ret

slab_free:
c0003c14:	de 03 ff 05 	add_i sp, sp, -64
c0003c18:	1e f3 00 88 	store_32 s24, 60(sp)
c0003c1c:	3e e3 00 88 	store_32 s25, 56(sp)
c0003c20:	fe d3 00 88 	store_32 ra, 52(sp)
c0003c24:	20 83 f0 c0 	move s25, s1
c0003c28:	00 03 f0 c0 	move s24, s0
c0003c2c:	a5 fd ff f9 	call -2412 <disable_interrupts>
c0003c30:	40 04 00 0f 	move s2, 1
c0003c34:	20 00 00 0f 	move s1, 0
c0003c38:	78 00 00 a8 	load_32 s3, (s24)
c0003c3c:	e3 ff ff f5 	bnz s3, -4 <slab_free+0x24>
c0003c40:	78 00 00 aa 	load_sync s3, (s24)
c0003c44:	83 80 10 c1 	cmpne_i s4, s3, s1
c0003c48:	84 00 00 f4 	bnz s4, 16 <slab_free+0x44>
c0003c4c:	80 00 f1 c0 	move s4, s2
c0003c50:	98 00 00 8a 	store_sync s4, (s24)  
c0003c54:	64 ff ff f3 	bz s4, -20 <slab_free+0x2C>
c0003c58:	63 00 00 10 	cmpeq_i s3, s3, 0
c0003c5c:	63 04 00 01 	and s3, s3, 1
c0003c60:	c3 fe ff f3 	bz s3, -40 <slab_free+0x24>
c0003c64:	58 20 00 a8 	load_32 s2, 8(s24)
c0003c68:	59 00 00 88 	store_32 s2, (s25)
c0003c6c:	38 23 00 88 	store_32 s25, 8(s24)
c0003c70:	38 00 00 88 	store_32 s1, (s24)
c0003c74:	00 00 00 e8 	membar
c0003c78:	9a fd ff f9 	call -2456 <restore_interrupts>
c0003c7c:	fe d3 00 a8 	load_32 ra, 52(sp)
c0003c80:	3e e3 00 a8 	load_32 s25, 56(sp)
c0003c84:	1e f3 00 a8 	load_32 s24, 60(sp)
c0003c88:	de 03 01 05 	add_i sp, sp, 64
c0003c8c:	1f 00 00 f0 	ret

context_switch:
c0003c90:	de 03 21 06 	sub_i sp, sp, 2112
c0003c94:	1e 00 00 8e 	store_v v0, (sp)
c0003c98:	3e 00 01 8e 	store_v v1, 64(sp)
c0003c9c:	5e 00 02 8e 	store_v v2, 128(sp)
c0003ca0:	7e 00 03 8e 	store_v v3, 192(sp)
c0003ca4:	9e 00 04 8e 	store_v v4, 256(sp)
c0003ca8:	be 00 05 8e 	store_v v5, 320(sp)
c0003cac:	de 00 06 8e 	store_v v6, 384(sp)
c0003cb0:	fe 00 07 8e 	store_v v7, 448(sp)
c0003cb4:	1e 01 08 8e 	store_v v8, 512(sp)
c0003cb8:	3e 01 09 8e 	store_v v9, 576(sp)
c0003cbc:	5e 01 0a 8e 	store_v v10, 640(sp)
c0003cc0:	7e 01 0b 8e 	store_v v11, 704(sp)
c0003cc4:	9e 01 0c 8e 	store_v v12, 768(sp)
c0003cc8:	be 01 0d 8e 	store_v v13, 832(sp)
c0003ccc:	de 01 0e 8e 	store_v v14, 896(sp)
c0003cd0:	fe 01 0f 8e 	store_v v15, 960(sp)
c0003cd4:	1e 02 10 8e 	store_v v16, 1024(sp)
c0003cd8:	3e 02 11 8e 	store_v v17, 1088(sp)
c0003cdc:	5e 02 12 8e 	store_v v18, 1152(sp)
c0003ce0:	7e 02 13 8e 	store_v v19, 1216(sp)
c0003ce4:	9e 02 14 8e 	store_v v20, 1280(sp)
c0003ce8:	be 02 15 8e 	store_v v21, 1344(sp)
c0003cec:	de 02 16 8e 	store_v v22, 1408(sp)
c0003cf0:	fe 02 17 8e 	store_v v23, 1472(sp)
c0003cf4:	1e 03 18 8e 	store_v v24, 1536(sp)
c0003cf8:	3e 03 19 8e 	store_v v25, 1600(sp)
c0003cfc:	5e 03 1a 8e 	store_v v26, 1664(sp)
c0003d00:	7e 03 1b 8e 	store_v v27, 1728(sp)
c0003d04:	9e 03 1c 8e 	store_v v28, 1792(sp)
c0003d08:	be 03 1d 8e 	store_v v29, 1856(sp)
c0003d0c:	de 03 1e 8e 	store_v v30, 1920(sp)
c0003d10:	fe 03 1f 8e 	store_v v31, 1984(sp)
c0003d14:	1e 03 20 88 	store_32 s24, 2048(sp)
c0003d18:	3e 13 20 88 	store_32 s25, 2052(sp)
c0003d1c:	5e 23 20 88 	store_32 s26, 2056(sp)
c0003d20:	7e 33 20 88 	store_32 s27, 2060(sp)
c0003d24:	9e 43 20 88 	store_32 s28, 2064(sp)
c0003d28:	be 53 20 88 	store_32 fp, 2068(sp)
c0003d2c:	fe 63 20 88 	store_32 ra, 2072(sp)
c0003d30:	c0 03 00 88 	store_32 sp, (s0)
c0003d34:	c0 83 f0 c0 	move sp, s1
c0003d38:	1e 00 00 ae 	load_v v0, (sp)
c0003d3c:	3e 00 01 ae 	load_v v1, 64(sp)
c0003d40:	5e 00 02 ae 	load_v v2, 128(sp)
c0003d44:	7e 00 03 ae 	load_v v3, 192(sp)
c0003d48:	9e 00 04 ae 	load_v v4, 256(sp)
c0003d4c:	be 00 05 ae 	load_v v5, 320(sp)
c0003d50:	de 00 06 ae 	load_v v6, 384(sp)
c0003d54:	fe 00 07 ae 	load_v v7, 448(sp)
c0003d58:	1e 01 08 ae 	load_v v8, 512(sp)
c0003d5c:	3e 01 09 ae 	load_v v9, 576(sp)
c0003d60:	5e 01 0a ae 	load_v v10, 640(sp)
c0003d64:	7e 01 0b ae 	load_v v11, 704(sp)
c0003d68:	9e 01 0c ae 	load_v v12, 768(sp)
c0003d6c:	be 01 0d ae 	load_v v13, 832(sp)
c0003d70:	de 01 0e ae 	load_v v14, 896(sp)
c0003d74:	fe 01 0f ae 	load_v v15, 960(sp)
c0003d78:	1e 02 10 ae 	load_v v16, 1024(sp)
c0003d7c:	3e 02 11 ae 	load_v v17, 1088(sp)
c0003d80:	5e 02 12 ae 	load_v v18, 1152(sp)
c0003d84:	7e 02 13 ae 	load_v v19, 1216(sp)
c0003d88:	9e 02 14 ae 	load_v v20, 1280(sp)
c0003d8c:	be 02 15 ae 	load_v v21, 1344(sp)
c0003d90:	de 02 16 ae 	load_v v22, 1408(sp)
c0003d94:	fe 02 17 ae 	load_v v23, 1472(sp)
c0003d98:	1e 03 18 ae 	load_v v24, 1536(sp)
c0003d9c:	3e 03 19 ae 	load_v v25, 1600(sp)
c0003da0:	5e 03 1a ae 	load_v v26, 1664(sp)
c0003da4:	7e 03 1b ae 	load_v v27, 1728(sp)
c0003da8:	9e 03 1c ae 	load_v v28, 1792(sp)
c0003dac:	be 03 1d ae 	load_v v29, 1856(sp)
c0003db0:	de 03 1e ae 	load_v v30, 1920(sp)
c0003db4:	fe 03 1f ae 	load_v v31, 1984(sp)
c0003db8:	1e 03 20 a8 	load_32 s24, 2048(sp)
c0003dbc:	3e 13 20 a8 	load_32 s25, 2052(sp)
c0003dc0:	5e 23 20 a8 	load_32 s26, 2056(sp)
c0003dc4:	7e 33 20 a8 	load_32 s27, 2060(sp)
c0003dc8:	9e 43 20 a8 	load_32 s28, 2064(sp)
c0003dcc:	be 53 20 a8 	load_32 fp, 2068(sp)
c0003dd0:	fe 63 20 a8 	load_32 ra, 2072(sp)
c0003dd4:	de 03 21 05 	add_i sp, sp, 2112
c0003dd8:	1f 00 00 f0 	ret

bool_init_kernel_process:
c0003ddc:	de 03 ff 05 	add_i sp, sp, -64
c0003de0:	1e f3 00 88 	store_32 s24, 60(sp)
c0003de4:	3e e3 00 88 	store_32 s25, 56(sp)
c0003de8:	fe d3 00 88 	store_32 ra, 52(sp)
c0003dec:	04 00 c0 4f 	movehi s0, 393220
c0003df0:	24 00 c0 4f 	movehi s1, 393220
c0003df4:	44 00 c0 4f 	movehi s2, 393220
c0003df8:	00 10 46 00 	or s0, s0, 4484
c0003dfc:	21 30 46 00 	or s1, s1, 4492
c0003e00:	02 53 46 00 	or s24, s2, 4500
c0003e04:	00 10 00 88 	store_32 s0, 4(s0)
c0003e08:	00 00 00 88 	store_32 s0, (s0)
c0003e0c:	04 00 c0 4f 	movehi s0, 393220
c0003e10:	21 10 00 88 	store_32 s1, 4(s1)
c0003e14:	21 00 00 88 	store_32 s1, (s1)
c0003e18:	00 20 40 00 	or s0, s0, 4104
c0003e1c:	18 13 00 88 	store_32 s24, 4(s24)
c0003e20:	18 03 00 88 	store_32 s24, (s24)
c0003e24:	3d ff ff f9 	call -780 <slab_alloc>
c0003e28:	24 00 c0 4f 	movehi s1, 393220
c0003e2c:	21 73 46 00 	or s25, s1, 4508
c0003e30:	20 50 00 05 	add_i s1, s0, 20
c0003e34:	19 00 00 88 	store_32 s0, (s25)
c0003e38:	20 60 00 88 	store_32 s1, 24(s0)
c0003e3c:	20 50 00 88 	store_32 s1, 20(s0)
c0003e40:	dc 0c 00 f8 	call 13168 <get_kernel_address_space>
c0003e44:	39 00 00 a8 	load_32 s1, (s25)
c0003e48:	44 00 c0 4f 	movehi s2, 393220
c0003e4c:	42 80 46 00 	or s2, s2, 4512
c0003e50:	01 70 00 88 	store_32 s0, 28(s1)
c0003e54:	00 00 00 0f 	move s0, 0
c0003e58:	01 30 00 88 	store_32 s0, 12(s1)
c0003e5c:	01 40 00 88 	store_32 s0, 16(s1)
c0003e60:	18 00 00 a8 	load_32 s0, (s24)
c0003e64:	01 00 00 88 	store_32 s0, (s1)
c0003e68:	01 13 00 88 	store_32 s24, 4(s1)
c0003e6c:	20 10 00 88 	store_32 s1, 4(s0)
c0003e70:	01 10 00 a8 	load_32 s0, 4(s1)
c0003e74:	20 00 00 88 	store_32 s1, (s0)
c0003e78:	00 04 00 0f 	move s0, 1
c0003e7c:	02 00 00 88 	store_32 s0, (s2)
c0003e80:	fe d3 00 a8 	load_32 ra, 52(sp)
c0003e84:	3e e3 00 a8 	load_32 s25, 56(sp)
c0003e88:	1e f3 00 a8 	load_32 s24, 60(sp)
c0003e8c:	de 03 01 05 	add_i sp, sp, 64
c0003e90:	1f 00 00 f0 	ret

boot_init_thread:
c0003e94:	de 03 ff 05 	add_i sp, sp, -64
c0003e98:	1e f3 00 88 	store_32 s24, 60(sp)
c0003e9c:	3e e3 00 88 	store_32 s25, 56(sp)
c0003ea0:	5e d3 00 88 	store_32 s26, 52(sp)
c0003ea4:	7e c3 00 88 	store_32 s27, 48(sp)
c0003ea8:	fe b3 00 88 	store_32 ra, 44(sp)
c0003eac:	04 00 c0 4f 	movehi s0, 393220
c0003eb0:	00 80 40 00 	or s0, s0, 4128
c0003eb4:	19 ff ff f9 	call -924 <slab_alloc>
c0003eb8:	24 00 c0 4f 	movehi s1, 393220
c0003ebc:	00 03 f0 c0 	move s24, s0
c0003ec0:	04 00 c0 4f 	movehi s0, 393220
c0003ec4:	21 73 46 00 	or s25, s1, 4508
c0003ec8:	40 07 00 0f 	move s26, 1
c0003ecc:	58 c3 00 88 	store_32 s26, 48(s24)
c0003ed0:	00 90 46 00 	or s0, s0, 4516
c0003ed4:	39 00 00 a8 	load_32 s1, (s25)
c0003ed8:	38 90 00 88 	store_32 s1, 36(s24)
c0003edc:	20 00 00 aa 	load_sync s1, (s0)
c0003ee0:	41 04 00 05 	add_i s2, s1, 1
c0003ee4:	20 80 f0 c0 	move s1, s1
c0003ee8:	40 00 00 8a 	store_sync s2, (s0)  
c0003eec:	82 ff ff f3 	bz s2, -16 <boot_init_thread+0x48>
c0003ef0:	38 40 00 88 	store_32 s1, 16(s24)
c0003ef4:	20 00 c0 4f 	movehi s1, 393216
c0003ef8:	18 d0 00 05 	add_i s0, s24, 52
c0003efc:	40 80 00 0f 	move s2, 32
c0003f00:	21 f8 0c 00 	or s1, s1, 830
c0003f04:	dc fa ff f9 	call -5264 <strlcpy>
c0003f08:	04 00 c0 4f 	movehi s0, 393220
c0003f0c:	20 00 00 ac 	getcr s1, 0
c0003f10:	00 70 53 00 	or s0, s0, 5340
c0003f14:	21 08 00 0b 	shl s1, s1, 2
c0003f18:	00 80 50 c0 	add_i s0, s0, s1
c0003f1c:	00 03 00 88 	store_32 s24, (s0)
c0003f20:	79 03 00 a8 	load_32 s27, (s25)
c0003f24:	e7 fc ff f9 	call -3172 <disable_interrupts>
c0003f28:	5b 40 00 05 	add_i s2, s27, 16
c0003f2c:	20 00 00 0f 	move s1, 0
c0003f30:	7b 40 00 a8 	load_32 s3, 16(s27)
c0003f34:	e3 ff ff f5 	bnz s3, -4 <boot_init_thread+0x9C>
c0003f38:	62 00 00 aa 	load_sync s3, (s2)
c0003f3c:	83 80 10 c1 	cmpne_i s4, s3, s1
c0003f40:	84 00 00 f4 	bnz s4, 16 <boot_init_thread+0xBC>
c0003f44:	80 00 fd c0 	move s4, s26
c0003f48:	82 00 00 8a 	store_sync s4, (s2)  
c0003f4c:	64 ff ff f3 	bz s4, -20 <boot_init_thread+0xA4>
c0003f50:	63 00 00 10 	cmpeq_i s3, s3, 0
c0003f54:	63 04 00 01 	and s3, s3, 1
c0003f58:	c3 fe ff f3 	bz s3, -40 <boot_init_thread+0x9C>
c0003f5c:	59 00 00 a8 	load_32 s2, (s25)
c0003f60:	b8 20 00 05 	add_i s5, s24, 8
c0003f64:	82 50 00 a8 	load_32 s4, 20(s2)
c0003f68:	62 50 00 05 	add_i s3, s2, 20
c0003f6c:	98 20 00 88 	store_32 s4, 8(s24)
c0003f70:	78 30 00 88 	store_32 s3, 12(s24)
c0003f74:	a4 10 00 88 	store_32 s5, 4(s4)
c0003f78:	78 30 00 a8 	load_32 s3, 12(s24)
c0003f7c:	a3 00 00 88 	store_32 s5, (s3)
c0003f80:	22 40 00 88 	store_32 s1, 16(s2)
c0003f84:	00 00 00 e8 	membar
c0003f88:	d6 fc ff f9 	call -3240 <restore_interrupts>
c0003f8c:	01 00 c0 4f 	movehi s0, 393217
c0003f90:	20 f0 7e 00 	or s1, s0, 8124
c0003f94:	00 04 00 0f 	move s0, 1
c0003f98:	e0 fc ff f9 	call -3200 <register_interrupt_handler>
c0003f9c:	19 f8 ff f9 	call -8092 <start_timer>
c0003fa0:	fe b3 00 a8 	load_32 ra, 44(sp)
c0003fa4:	7e c3 00 a8 	load_32 s27, 48(sp)
c0003fa8:	5e d3 00 a8 	load_32 s26, 52(sp)
c0003fac:	3e e3 00 a8 	load_32 s25, 56(sp)
c0003fb0:	1e f3 00 a8 	load_32 s24, 60(sp)
c0003fb4:	de 03 01 05 	add_i sp, sp, 64
c0003fb8:	1f 00 00 f0 	ret

timer_tick:
c0003fbc:	de 03 ff 05 	add_i sp, sp, -64
c0003fc0:	fe f3 00 88 	store_32 ra, 60(sp)
c0003fc4:	0f f8 ff f9 	call -8132 <start_timer>
c0003fc8:	00 04 00 0f 	move s0, 1
c0003fcc:	e4 fc ff f9 	call -3184 <ack_interrupt>
c0003fd0:	04 00 c0 4f 	movehi s0, 393220
c0003fd4:	20 00 00 ac 	getcr s1, 0
c0003fd8:	00 c0 46 00 	or s0, s0, 4528
c0003fdc:	21 08 00 0b 	shl s1, s1, 2
c0003fe0:	00 80 50 c0 	add_i s0, s0, s1
c0003fe4:	00 00 00 a8 	load_32 s0, (s0)
c0003fe8:	40 00 00 f4 	bnz s0, 8 <timer_tick+0x34>
c0003fec:	04 00 00 f6 	b 16 <timer_tick+0x40>
c0003ff0:	fe f3 00 a8 	load_32 ra, 60(sp)
c0003ff4:	de 03 01 05 	add_i sp, sp, 64
c0003ff8:	1f 00 00 f0 	ret
c0003ffc:	4f 01 00 f8 	call 1340 <reschedule>
c0004000:	fe f3 00 a8 	load_32 ra, 60(sp)
c0004004:	de 03 01 05 	add_i sp, sp, 64
c0004008:	1f 00 00 f0 	ret

current_thread:
c000400c:	04 00 c0 4f 	movehi s0, 393220
c0004010:	20 00 00 ac 	getcr s1, 0
c0004014:	00 70 53 00 	or s0, s0, 5340
c0004018:	21 08 00 0b 	shl s1, s1, 2
c000401c:	00 80 50 c0 	add_i s0, s0, s1
c0004020:	00 00 00 a8 	load_32 s0, (s0)
c0004024:	1f 00 00 f0 	ret

spawn_thread_internal:
c0004028:	de 03 ff 05 	add_i sp, sp, -64
c000402c:	1e f3 00 88 	store_32 s24, 60(sp)
c0004030:	3e e3 00 88 	store_32 s25, 56(sp)
c0004034:	5e d3 00 88 	store_32 s26, 52(sp)
c0004038:	7e c3 00 88 	store_32 s27, 48(sp)
c000403c:	9e b3 00 88 	store_32 s28, 44(sp)
c0004040:	fe a3 00 88 	store_32 ra, 40(sp)
c0004044:	be 90 00 88 	store_32 s5, 36(sp)
c0004048:	9e 80 00 88 	store_32 s4, 32(sp)
c000404c:	7e 70 00 88 	store_32 s3, 28(sp)
c0004050:	80 03 f1 c0 	move s28, s2
c0004054:	20 83 f0 c0 	move s25, s1
c0004058:	40 03 f0 c0 	move s26, s0
c000405c:	04 00 c0 4f 	movehi s0, 393220
c0004060:	00 80 40 00 	or s0, s0, 4128
c0004064:	ad fe ff f9 	call -1356 <slab_alloc>
c0004068:	00 03 f0 c0 	move s24, s0
c000406c:	40 80 00 0f 	move s2, 32
c0004070:	20 00 fd c0 	move s1, s26
c0004074:	18 d0 00 05 	add_i s0, s24, 52
c0004078:	7f fa ff f9 	call -5636 <strlcpy>
c000407c:	4d 0c 00 f8 	call 12596 <get_kernel_address_space>
c0004080:	20 00 c0 4f 	movehi s1, 393216
c0004084:	40 07 00 0f 	move s26, 1
c0004088:	60 03 00 0f 	move s27, 0
c000408c:	81 28 0d 00 	or s4, s1, 842
c0004090:	60 00 fd c0 	move s3, s26
c0004094:	c0 80 fd c0 	move s6, s27
c0004098:	20 fc ff 0f 	move s1, -1
c000409c:	42 00 00 4f 	movehi s2, 2
c00040a0:	a0 0c 00 0f 	move s5, 3
c00040a4:	e0 80 fd c0 	move s7, s27
c00040a8:	d8 0c 00 f8 	call 13152 <create_area>
c00040ac:	18 70 00 88 	store_32 s0, 28(s24)
c00040b0:	00 30 00 a8 	load_32 s0, 12(s0)
c00040b4:	20 04 00 05 	add_i s1, s0, 1
c00040b8:	38 50 00 88 	store_32 s1, 20(s24)
c00040bc:	20 04 df 05 	add_i s1, s0, -2111
c00040c0:	38 60 00 88 	store_32 s1, 24(s24)
c00040c4:	38 93 00 88 	store_32 s25, 36(s24)
c00040c8:	80 67 ff 89 	store_32 s28, -39(s0)
c00040cc:	04 00 c0 4f 	movehi s0, 393220
c00040d0:	3e 70 00 a8 	load_32 s1, 28(sp)
c00040d4:	38 a0 00 88 	store_32 s1, 40(s24)
c00040d8:	00 90 46 00 	or s0, s0, 4516
c00040dc:	3e 80 00 a8 	load_32 s1, 32(sp)
c00040e0:	38 b0 00 88 	store_32 s1, 44(s24)
c00040e4:	20 00 00 aa 	load_sync s1, (s0)
c00040e8:	41 04 00 05 	add_i s2, s1, 1
c00040ec:	20 80 f0 c0 	move s1, s1
c00040f0:	40 00 00 8a 	store_sync s2, (s0)  
c00040f4:	82 ff ff f3 	bz s2, -16 <spawn_thread_internal+0xBC>
c00040f8:	38 40 00 88 	store_32 s1, 16(s24)
c00040fc:	78 c3 00 88 	store_32 s27, 48(s24)
c0004100:	00 80 fd c0 	move s0, s27
c0004104:	3e 90 00 a8 	load_32 s1, 36(sp)
c0004108:	61 01 00 f4 	bnz s1, 44 <spawn_thread_internal+0x10C>
c000410c:	20 00 c0 4f 	movehi s1, 393216
c0004110:	19 70 00 a8 	load_32 s0, 28(s25)
c0004114:	c0 00 00 0f 	move s6, 0
c0004118:	48 00 00 4f 	movehi s2, 8
c000411c:	81 5c 0d 00 	or s4, s1, 855
c0004120:	20 fc ff 0f 	move s1, -1
c0004124:	60 04 00 0f 	move s3, 1
c0004128:	a0 08 00 0f 	move s5, 2
c000412c:	e0 00 f3 c0 	move s7, s6
c0004130:	b6 0c 00 f8 	call 13016 <create_area>
c0004134:	18 80 00 88 	store_32 s0, 32(s24)
c0004138:	62 fc ff f9 	call -3704 <disable_interrupts>
c000413c:	39 40 00 05 	add_i s1, s25, 16
c0004140:	59 40 00 a8 	load_32 s2, 16(s25)
c0004144:	e2 ff ff f5 	bnz s2, -4 <spawn_thread_internal+0x118>
c0004148:	41 00 00 aa 	load_sync s2, (s1)
c000414c:	62 80 1d c1 	cmpne_i s3, s2, s27
c0004150:	83 00 00 f4 	bnz s3, 16 <spawn_thread_internal+0x138>
c0004154:	60 00 fd c0 	move s3, s26
c0004158:	61 00 00 8a 	store_sync s3, (s1)  
c000415c:	63 ff ff f3 	bz s3, -20 <spawn_thread_internal+0x120>
c0004160:	42 00 00 10 	cmpeq_i s2, s2, 0
c0004164:	42 04 00 01 	and s2, s2, 1
c0004168:	c2 fe ff f3 	bz s2, -40 <spawn_thread_internal+0x118>
c000416c:	59 50 00 a8 	load_32 s2, 20(s25)
c0004170:	39 50 00 05 	add_i s1, s25, 20
c0004174:	58 20 00 88 	store_32 s2, 8(s24)
c0004178:	78 20 00 05 	add_i s3, s24, 8
c000417c:	38 30 00 88 	store_32 s1, 12(s24)
c0004180:	62 10 00 88 	store_32 s3, 4(s2)
c0004184:	44 00 c0 4f 	movehi s2, 393220
c0004188:	38 30 00 a8 	load_32 s1, 12(s24)
c000418c:	42 a0 46 00 	or s2, s2, 4520
c0004190:	61 00 00 88 	store_32 s3, (s1)
c0004194:	20 00 00 0f 	move s1, 0
c0004198:	39 40 00 88 	store_32 s1, 16(s25)
c000419c:	00 00 00 e8 	membar
c00041a0:	62 00 00 a8 	load_32 s3, (s2)
c00041a4:	e3 ff ff f5 	bnz s3, -4 <spawn_thread_internal+0x178>
c00041a8:	62 00 00 aa 	load_sync s3, (s2)
c00041ac:	83 80 10 c1 	cmpne_i s4, s3, s1
c00041b0:	84 00 00 f4 	bnz s4, 16 <spawn_thread_internal+0x198>
c00041b4:	80 00 fd c0 	move s4, s26
c00041b8:	82 00 00 8a 	store_sync s4, (s2)  
c00041bc:	64 ff ff f3 	bz s4, -20 <spawn_thread_internal+0x180>
c00041c0:	63 00 00 10 	cmpeq_i s3, s3, 0
c00041c4:	63 04 00 01 	and s3, s3, 1
c00041c8:	c3 fe ff f3 	bz s3, -40 <spawn_thread_internal+0x178>
c00041cc:	64 00 c0 4f 	movehi s3, 393220
c00041d0:	63 10 46 00 	or s3, s3, 4484
c00041d4:	83 00 00 a8 	load_32 s4, (s3)
c00041d8:	98 00 00 88 	store_32 s4, (s24)
c00041dc:	78 10 00 88 	store_32 s3, 4(s24)
c00041e0:	04 13 00 88 	store_32 s24, 4(s4)
c00041e4:	78 10 00 a8 	load_32 s3, 4(s24)
c00041e8:	03 03 00 88 	store_32 s24, (s3)
c00041ec:	22 00 00 88 	store_32 s1, (s2)
c00041f0:	00 00 00 e8 	membar
c00041f4:	3b fc ff f9 	call -3860 <restore_interrupts>
c00041f8:	00 00 fc c0 	move s0, s24
c00041fc:	fe a3 00 a8 	load_32 ra, 40(sp)
c0004200:	9e b3 00 a8 	load_32 s28, 44(sp)
c0004204:	7e c3 00 a8 	load_32 s27, 48(sp)
c0004208:	5e d3 00 a8 	load_32 s26, 52(sp)
c000420c:	3e e3 00 a8 	load_32 s25, 56(sp)
c0004210:	1e f3 00 a8 	load_32 s24, 60(sp)
c0004214:	de 03 01 05 	add_i sp, sp, 64
c0004218:	1f 00 00 f0 	ret

dec_proc_ref:
c000421c:	de 03 fe 05 	add_i sp, sp, -128
c0004220:	1e f3 01 88 	store_32 s24, 124(sp)
c0004224:	fe e3 01 88 	store_32 ra, 120(sp)
c0004228:	24 00 c0 4f 	movehi s1, 393220
c000422c:	40 00 00 ac 	getcr s2, 0
c0004230:	21 70 53 00 	or s1, s1, 5340
c0004234:	42 08 00 0b 	shl s2, s2, 2
c0004238:	21 00 51 c0 	add_i s1, s1, s2
c000423c:	21 00 00 a8 	load_32 s1, (s1)
c0004240:	21 90 00 a8 	load_32 s1, 36(s1)
c0004244:	00 03 f0 c0 	move s24, s0
c0004248:	01 00 1c c1 	cmpne_i s0, s1, s24
c000424c:	40 00 00 f4 	bnz s0, 8 <dec_proc_ref+0x38>
c0004250:	31 00 00 f6 	b 196 <dec_proc_ref+0xF8>
c0004254:	18 00 00 aa 	load_sync s0, (s24)
c0004258:	20 fc ff 05 	add_i s1, s0, -1
c000425c:	00 00 f0 c0 	move s0, s0
c0004260:	38 00 00 8a 	store_sync s1, (s24)  
c0004264:	81 ff ff f3 	bz s1, -16 <dec_proc_ref+0x38>
c0004268:	00 04 00 11 	cmpne_i s0, s0, 1
c000426c:	c0 04 00 f4 	bnz s0, 152 <dec_proc_ref+0xE8>
c0004270:	18 60 00 a8 	load_32 s0, 24(s24)
c0004274:	38 50 00 05 	add_i s1, s24, 20
c0004278:	00 80 00 c1 	cmpeq_i s0, s0, s1
c000427c:	40 00 00 f4 	bnz s0, 8 <dec_proc_ref+0x68>
c0004280:	2a 00 00 f6 	b 168 <dec_proc_ref+0x10C>
c0004284:	0f fc ff f9 	call -4036 <disable_interrupts>
c0004288:	24 00 c0 4f 	movehi s1, 393220
c000428c:	60 04 00 0f 	move s3, 1
c0004290:	40 00 00 0f 	move s2, 0
c0004294:	21 b0 46 00 	or s1, s1, 4524
c0004298:	81 00 00 a8 	load_32 s4, (s1)
c000429c:	e4 ff ff f5 	bnz s4, -4 <dec_proc_ref+0x7C>
c00042a0:	81 00 00 aa 	load_sync s4, (s1)
c00042a4:	a4 00 11 c1 	cmpne_i s5, s4, s2
c00042a8:	85 00 00 f4 	bnz s5, 16 <dec_proc_ref+0x9C>
c00042ac:	a0 80 f1 c0 	move s5, s3
c00042b0:	a1 00 00 8a 	store_sync s5, (s1)  
c00042b4:	65 ff ff f3 	bz s5, -20 <dec_proc_ref+0x84>
c00042b8:	84 00 00 10 	cmpeq_i s4, s4, 0
c00042bc:	84 04 00 01 	and s4, s4, 1
c00042c0:	c4 fe ff f3 	bz s4, -40 <dec_proc_ref+0x7C>
c00042c4:	78 10 00 a8 	load_32 s3, 4(s24)
c00042c8:	98 00 00 a8 	load_32 s4, (s24)
c00042cc:	64 10 00 88 	store_32 s3, 4(s4)
c00042d0:	78 10 00 a8 	load_32 s3, 4(s24)
c00042d4:	83 00 00 88 	store_32 s4, (s3)
c00042d8:	58 10 00 88 	store_32 s2, 4(s24)
c00042dc:	58 00 00 88 	store_32 s2, (s24)
c00042e0:	41 00 00 88 	store_32 s2, (s1)
c00042e4:	00 00 00 e8 	membar
c00042e8:	fe fb ff f9 	call -4104 <restore_interrupts>
c00042ec:	18 70 00 a8 	load_32 s0, 28(s24)
c00042f0:	2a 0c 00 f8 	call 12456 <destroy_address_space>
c00042f4:	04 00 c0 4f 	movehi s0, 393220
c00042f8:	20 00 fc c0 	move s1, s24
c00042fc:	00 20 40 00 	or s0, s0, 4104
c0004300:	45 fe ff f9 	call -1772 <slab_free>
c0004304:	fe e3 01 a8 	load_32 ra, 120(sp)
c0004308:	1e f3 01 a8 	load_32 s24, 124(sp)
c000430c:	de 03 02 05 	add_i sp, sp, 128
c0004310:	1f 00 00 f0 	ret
c0004314:	00 00 c0 4f 	movehi s0, 393216
c0004318:	20 e0 02 0f 	move s1, 184
c000431c:	3e 20 00 88 	store_32 s1, 8(sp)
c0004320:	00 ac 0d 00 	or s0, s0, 875
c0004324:	05 00 00 f6 	b 20 <dec_proc_ref+0x11C>
c0004328:	00 00 c0 4f 	movehi s0, 393216
c000432c:	20 f4 02 0f 	move s1, 189
c0004330:	3e 20 00 88 	store_32 s1, 8(sp)
c0004334:	00 28 0e 00 	or s0, s0, 906
c0004338:	20 00 c0 4f 	movehi s1, 393216
c000433c:	1e 30 00 88 	store_32 s0, 12(sp)
c0004340:	00 00 c0 4f 	movehi s0, 393216
c0004344:	21 88 0d 00 	or s1, s1, 866
c0004348:	3e 10 00 88 	store_32 s1, 4(sp)
c000434c:	00 e4 04 00 	or s0, s0, 313
c0004350:	1e 00 00 88 	store_32 s0, (sp)
c0004354:	91 f9 ff f9 	call -6588 <panic>

grim_reaper:
c0004358:	de 03 fe 05 	add_i sp, sp, -128
c000435c:	1e f3 01 88 	store_32 s24, 124(sp)
c0004360:	3e e3 01 88 	store_32 s25, 120(sp)
c0004364:	5e d3 01 88 	store_32 s26, 116(sp)
c0004368:	7e c3 01 88 	store_32 s27, 112(sp)
c000436c:	9e b3 01 88 	store_32 s28, 108(sp)
c0004370:	fe a3 01 88 	store_32 ra, 104(sp)
c0004374:	04 00 c0 4f 	movehi s0, 393220
c0004378:	24 00 c0 4f 	movehi s1, 393220
c000437c:	80 07 00 0f 	move s28, 1
c0004380:	60 a3 46 00 	or s27, s0, 4520
c0004384:	04 00 c0 4f 	movehi s0, 393220
c0004388:	20 03 00 0f 	move s25, 0
c000438c:	44 00 c0 4f 	movehi s2, 393220
c0004390:	00 30 46 00 	or s0, s0, 4492
c0004394:	1e 90 01 88 	store_32 s0, 100(sp)
c0004398:	01 70 53 00 	or s0, s1, 5340
c000439c:	1e 80 01 88 	store_32 s0, 96(sp)
c00043a0:	02 80 40 00 	or s0, s2, 4128
c00043a4:	1e 70 01 88 	store_32 s0, 92(sp)
c00043a8:	24 00 00 f6 	b 144 <grim_reaper+0xE0>
c00043ac:	38 30 00 a8 	load_32 s1, 12(s24)
c00043b0:	58 20 00 a8 	load_32 s2, 8(s24)
c00043b4:	22 10 00 88 	store_32 s1, 4(s2)
c00043b8:	38 30 00 a8 	load_32 s1, 12(s24)
c00043bc:	41 00 00 88 	store_32 s2, (s1)
c00043c0:	38 33 00 88 	store_32 s25, 12(s24)
c00043c4:	38 23 00 88 	store_32 s25, 8(s24)
c00043c8:	3a 43 00 88 	store_32 s25, 16(s26)
c00043cc:	00 00 00 e8 	membar
c00043d0:	c4 fb ff f9 	call -4336 <restore_interrupts>
c00043d4:	00 00 00 ac 	getcr s0, 0
c00043d8:	3e 80 01 a8 	load_32 s1, 96(sp)
c00043dc:	00 08 00 0b 	shl s0, s0, 2
c00043e0:	01 00 50 c0 	add_i s0, s1, s0
c00043e4:	00 00 00 a8 	load_32 s0, (s0)
c00043e8:	00 00 1c c1 	cmpne_i s0, s0, s24
c00043ec:	40 00 00 f4 	bnz s0, 8 <grim_reaper+0x9C>
c00043f0:	41 00 00 f6 	b 260 <grim_reaper+0x19C>
c00043f4:	38 80 00 a8 	load_32 s1, 32(s24)
c00043f8:	e1 00 00 f2 	bz s1, 28 <grim_reaper+0xBC>
c00043fc:	18 90 00 a8 	load_32 s0, 36(s24)
c0004400:	00 70 00 a8 	load_32 s0, 28(s0)
c0004404:	9d 0d 00 f8 	call 13940 <destroy_area>
c0004408:	03 00 00 f6 	b 12 <grim_reaper+0xBC>
c000440c:	4b 00 00 f8 	call 300 <reschedule>
c0004410:	0a 00 00 f6 	b 40 <grim_reaper+0xE0>
c0004414:	18 90 00 a8 	load_32 s0, 36(s24)
c0004418:	00 70 00 a8 	load_32 s0, 28(s0)
c000441c:	38 70 00 a8 	load_32 s1, 28(s24)
c0004420:	96 0d 00 f8 	call 13912 <destroy_area>
c0004424:	1e 70 01 a8 	load_32 s0, 92(sp)
c0004428:	20 00 fc c0 	move s1, s24
c000442c:	fa fd ff f9 	call -2072 <slab_free>
c0004430:	00 00 fd c0 	move s0, s26
c0004434:	7a ff ff f9 	call -536 <dec_proc_ref>
c0004438:	a2 fb ff f9 	call -4472 <disable_interrupts>
c000443c:	3b 00 00 a8 	load_32 s1, (s27)
c0004440:	e1 ff ff f5 	bnz s1, -4 <grim_reaper+0xE4>
c0004444:	3b 00 00 aa 	load_sync s1, (s27)
c0004448:	41 80 1c c1 	cmpne_i s2, s1, s25
c000444c:	82 00 00 f4 	bnz s2, 16 <grim_reaper+0x104>
c0004450:	40 00 fe c0 	move s2, s28
c0004454:	5b 00 00 8a 	store_sync s2, (s27)  
c0004458:	62 ff ff f3 	bz s2, -20 <grim_reaper+0xEC>
c000445c:	21 00 00 10 	cmpeq_i s1, s1, 0
c0004460:	21 04 00 01 	and s1, s1, 1
c0004464:	c1 fe ff f3 	bz s1, -40 <grim_reaper+0xE4>
c0004468:	5e 90 01 a8 	load_32 s2, 100(sp)
c000446c:	22 10 00 a8 	load_32 s1, 4(s2)
c0004470:	00 83 fc c0 	move s24, s25
c0004474:	41 00 01 c1 	cmpeq_i s2, s1, s2
c0004478:	e2 00 00 f4 	bnz s2, 28 <grim_reaper+0x13C>
c000447c:	41 10 00 a8 	load_32 s2, 4(s1)
c0004480:	61 00 00 a8 	load_32 s3, (s1)
c0004484:	43 10 00 88 	store_32 s2, 4(s3)
c0004488:	41 10 00 a8 	load_32 s2, 4(s1)
c000448c:	62 00 00 88 	store_32 s3, (s2)
c0004490:	00 83 f0 c0 	move s24, s1
c0004494:	3b 03 00 88 	store_32 s25, (s27)
c0004498:	00 00 00 e8 	membar
c000449c:	91 fb ff f9 	call -4540 <restore_interrupts>
c00044a0:	58 00 00 f4 	bnz s24, 8 <grim_reaper+0x150>
c00044a4:	da ff ff f7 	b -152 <grim_reaper+0xB4>
c00044a8:	58 93 00 a8 	load_32 s26, 36(s24)
c00044ac:	18 c0 00 a8 	load_32 s0, 48(s24)
c00044b0:	00 0c 00 10 	cmpeq_i s0, s0, 3
c00044b4:	40 00 00 f4 	bnz s0, 8 <grim_reaper+0x164>
c00044b8:	14 00 00 f6 	b 80 <grim_reaper+0x1B0>
c00044bc:	81 fb ff f9 	call -4604 <disable_interrupts>
c00044c0:	3a 40 00 a8 	load_32 s1, 16(s26)
c00044c4:	e1 ff ff f5 	bnz s1, -4 <grim_reaper+0x168>
c00044c8:	3a 40 00 05 	add_i s1, s26, 16
c00044cc:	41 00 00 aa 	load_sync s2, (s1)
c00044d0:	62 80 1c c1 	cmpne_i s3, s2, s25
c00044d4:	83 00 00 f4 	bnz s3, 16 <grim_reaper+0x18C>
c00044d8:	60 00 fe c0 	move s3, s28
c00044dc:	61 00 00 8a 	store_sync s3, (s1)  
c00044e0:	63 ff ff f3 	bz s3, -20 <grim_reaper+0x174>
c00044e4:	22 00 00 10 	cmpeq_i s1, s2, 0
c00044e8:	21 04 00 01 	and s1, s1, 1
c00044ec:	a1 fe ff f3 	bz s1, -44 <grim_reaper+0x168>
c00044f0:	af ff ff f7 	b -324 <grim_reaper+0x54>
c00044f4:	00 00 c0 4f 	movehi s0, 393216
c00044f8:	20 98 02 0f 	move s1, 166
c00044fc:	3e 20 00 88 	store_32 s1, 8(sp)
c0004500:	00 38 13 00 	or s0, s0, 1230
c0004504:	05 00 00 f6 	b 20 <grim_reaper+0x1C0>
c0004508:	00 00 c0 4f 	movehi s0, 393216
c000450c:	20 78 02 0f 	move s1, 158
c0004510:	3e 20 00 88 	store_32 s1, 8(sp)
c0004514:	00 d4 12 00 	or s0, s0, 1205
c0004518:	20 00 c0 4f 	movehi s1, 393216
c000451c:	1e 30 00 88 	store_32 s0, 12(sp)
c0004520:	00 00 c0 4f 	movehi s0, 393216
c0004524:	21 88 0d 00 	or s1, s1, 866
c0004528:	3e 10 00 88 	store_32 s1, 4(sp)
c000452c:	00 e4 04 00 	or s0, s0, 313
c0004530:	1e 00 00 88 	store_32 s0, (sp)
c0004534:	19 f9 ff f9 	call -7068 <panic>

reschedule:
c0004538:	de 03 fe 05 	add_i sp, sp, -128
c000453c:	1e f3 01 88 	store_32 s24, 124(sp)
c0004540:	3e e3 01 88 	store_32 s25, 120(sp)
c0004544:	5e d3 01 88 	store_32 s26, 116(sp)
c0004548:	7e c3 01 88 	store_32 s27, 112(sp)
c000454c:	9e b3 01 88 	store_32 s28, 108(sp)
c0004550:	fe a3 01 88 	store_32 ra, 104(sp)
c0004554:	04 00 c0 4f 	movehi s0, 393220
c0004558:	20 00 00 ac 	getcr s1, 0
c000455c:	00 c0 46 00 	or s0, s0, 4528
c0004560:	61 0b 00 0b 	shl s27, s1, 2
c0004564:	00 80 5d c0 	add_i s0, s0, s27
c0004568:	00 00 00 a8 	load_32 s0, (s0)
c000456c:	40 00 00 f2 	bz s0, 8 <reschedule+0x3C>
c0004570:	57 00 00 f6 	b 348 <reschedule+0x194>
c0004574:	53 fb ff f9 	call -4788 <disable_interrupts>
c0004578:	24 00 c0 4f 	movehi s1, 393220
c000457c:	80 00 f0 c0 	move s4, s0
c0004580:	00 04 00 0f 	move s0, 1
c0004584:	21 a3 46 00 	or s25, s1, 4520
c0004588:	40 03 00 0f 	move s26, 0
c000458c:	39 00 00 a8 	load_32 s1, (s25)
c0004590:	e1 ff ff f5 	bnz s1, -4 <reschedule+0x54>
c0004594:	39 00 00 aa 	load_sync s1, (s25)
c0004598:	41 00 1d c1 	cmpne_i s2, s1, s26
c000459c:	82 00 00 f4 	bnz s2, 16 <reschedule+0x74>
c00045a0:	40 00 f0 c0 	move s2, s0
c00045a4:	59 00 00 8a 	store_sync s2, (s25)  
c00045a8:	62 ff ff f3 	bz s2, -20 <reschedule+0x5C>
c00045ac:	21 00 00 10 	cmpeq_i s1, s1, 0
c00045b0:	21 04 00 01 	and s1, s1, 1
c00045b4:	c1 fe ff f3 	bz s1, -40 <reschedule+0x54>
c00045b8:	24 00 c0 4f 	movehi s1, 393220
c00045bc:	21 70 53 00 	or s1, s1, 5340
c00045c0:	21 80 5d c0 	add_i s1, s1, s27
c00045c4:	81 03 00 a8 	load_32 s28, (s1)
c00045c8:	5c c0 00 a8 	load_32 s2, 48(s28)
c00045cc:	62 04 00 10 	cmpeq_i s3, s2, 1
c00045d0:	e3 00 00 f4 	bnz s3, 28 <reschedule+0xB4>
c00045d4:	e2 01 00 f4 	bnz s2, 60 <reschedule+0xD8>
c00045d8:	00 00 c0 4f 	movehi s0, 393216
c00045dc:	20 78 04 0f 	move s1, 286
c00045e0:	3e 20 00 88 	store_32 s1, 8(sp)
c00045e4:	00 34 0f 00 	or s0, s0, 973
c00045e8:	3d 00 00 f6 	b 244 <reschedule+0x1A4>
c00045ec:	44 00 c0 4f 	movehi s2, 393220
c00045f0:	5c c3 00 88 	store_32 s26, 48(s28)
c00045f4:	42 10 46 00 	or s2, s2, 4484
c00045f8:	62 00 00 a8 	load_32 s3, (s2)
c00045fc:	7c 00 00 88 	store_32 s3, (s28)
c0004600:	5c 10 00 88 	store_32 s2, 4(s28)
c0004604:	83 13 00 88 	store_32 s28, 4(s3)
c0004608:	5c 10 00 a8 	load_32 s2, 4(s28)
c000460c:	82 03 00 88 	store_32 s28, (s2)
c0004610:	44 00 c0 4f 	movehi s2, 393220
c0004614:	42 10 46 00 	or s2, s2, 4484
c0004618:	02 13 00 a8 	load_32 s24, 4(s2)
c000461c:	58 00 01 c1 	cmpeq_i s2, s24, s2
c0004620:	c2 04 00 f4 	bnz s2, 152 <reschedule+0x180>
c0004624:	58 10 00 a8 	load_32 s2, 4(s24)
c0004628:	78 00 00 a8 	load_32 s3, (s24)
c000462c:	43 10 00 88 	store_32 s2, 4(s3)
c0004630:	58 10 00 a8 	load_32 s2, 4(s24)
c0004634:	62 00 00 88 	store_32 s3, (s2)
c0004638:	58 00 00 f4 	bnz s24, 8 <reschedule+0x108>
c000463c:	1f 00 00 f6 	b 124 <reschedule+0x180>
c0004640:	5c 00 0c c1 	cmpeq_i s2, s28, s24
c0004644:	18 c0 00 88 	store_32 s0, 48(s24)
c0004648:	02 02 00 f4 	bnz s2, 64 <reschedule+0x150>
c000464c:	04 00 c0 4f 	movehi s0, 393220
c0004650:	01 03 00 88 	store_32 s24, (s1)
c0004654:	38 50 00 a8 	load_32 s1, 20(s24)
c0004658:	00 70 4f 00 	or s0, s0, 5084
c000465c:	00 80 5d c0 	add_i s0, s0, s27
c0004660:	20 00 00 88 	store_32 s1, (s0)
c0004664:	18 90 00 a8 	load_32 s0, 36(s24)
c0004668:	00 70 00 a8 	load_32 s0, 28(s0)
c000466c:	00 b0 00 a8 	load_32 s0, 44(s0)
c0004670:	60 03 f2 c0 	move s27, s4
c0004674:	fa 07 00 f8 	call 8168 <switch_to_translation_map>
c0004678:	38 60 00 a8 	load_32 s1, 24(s24)
c000467c:	1c 60 00 05 	add_i s0, s28, 24
c0004680:	84 fd ff f9 	call -2544 <context_switch>
c0004684:	80 80 fd c0 	move s4, s27
c0004688:	59 03 00 88 	store_32 s26, (s25)
c000468c:	00 00 00 e8 	membar
c0004690:	00 00 f2 c0 	move s0, s4
c0004694:	13 fb ff f9 	call -5044 <restore_interrupts>
c0004698:	fe a3 01 a8 	load_32 ra, 104(sp)
c000469c:	9e b3 01 a8 	load_32 s28, 108(sp)
c00046a0:	7e c3 01 a8 	load_32 s27, 112(sp)
c00046a4:	5e d3 01 a8 	load_32 s26, 116(sp)
c00046a8:	3e e3 01 a8 	load_32 s25, 120(sp)
c00046ac:	1e f3 01 a8 	load_32 s24, 124(sp)
c00046b0:	de 03 02 05 	add_i sp, sp, 128
c00046b4:	1f 00 00 f0 	ret
c00046b8:	00 00 c0 4f 	movehi s0, 393216
c00046bc:	20 9c 04 0f 	move s1, 295
c00046c0:	3e 20 00 88 	store_32 s1, 8(sp)
c00046c4:	00 bc 0f 00 	or s0, s0, 1007
c00046c8:	05 00 00 f6 	b 20 <reschedule+0x1A4>
c00046cc:	00 00 c0 4f 	movehi s0, 393216
c00046d0:	20 60 04 0f 	move s1, 280
c00046d4:	3e 20 00 88 	store_32 s1, 8(sp)
c00046d8:	00 b0 0e 00 	or s0, s0, 940
c00046dc:	20 00 c0 4f 	movehi s1, 393216
c00046e0:	1e 30 00 88 	store_32 s0, 12(sp)
c00046e4:	00 00 c0 4f 	movehi s0, 393216
c00046e8:	21 88 0d 00 	or s1, s1, 866
c00046ec:	3e 10 00 88 	store_32 s1, 4(sp)
c00046f0:	00 e4 04 00 	or s0, s0, 313
c00046f4:	1e 00 00 88 	store_32 s0, (sp)
c00046f8:	a8 f8 ff f9 	call -7520 <panic>

spawn_user_thread:
c00046fc:	de 03 ff 05 	add_i sp, sp, -64
c0004700:	fe f3 00 88 	store_32 ra, 60(sp)
c0004704:	60 00 f1 c0 	move s3, s2
c0004708:	42 00 c0 4f 	movehi s2, 393218
c000470c:	80 00 00 0f 	move s4, 0
c0004710:	42 a0 1c 00 	or s2, s2, 1832
c0004714:	a0 00 f2 c0 	move s5, s4
c0004718:	44 fe ff f9 	call -1776 <spawn_thread_internal>
c000471c:	fe f3 00 a8 	load_32 ra, 60(sp)
c0004720:	de 03 01 05 	add_i sp, sp, 64
c0004724:	1f 00 00 f0 	ret

user_thread_kernel_start:
c0004728:	de 03 ff 05 	add_i sp, sp, -64
c000472c:	1e f3 00 88 	store_32 s24, 60(sp)
c0004730:	3e e3 00 88 	store_32 s25, 56(sp)
c0004734:	fe d3 00 88 	store_32 ra, 52(sp)
c0004738:	24 00 c0 4f 	movehi s1, 393220
c000473c:	00 00 00 ac 	getcr s0, 0
c0004740:	44 00 c0 4f 	movehi s2, 393220
c0004744:	00 03 00 0f 	move s24, 0
c0004748:	21 70 53 00 	or s1, s1, 5340
c000474c:	00 08 00 0b 	shl s0, s0, 2
c0004750:	01 00 50 c0 	add_i s0, s1, s0
c0004754:	22 a0 46 00 	or s1, s2, 4520
c0004758:	20 03 00 a8 	load_32 s25, (s0)
c000475c:	00 1c 00 0f 	move s0, 7
c0004760:	01 03 00 88 	store_32 s24, (s1)
c0004764:	00 00 00 e8 	membar
c0004768:	de fa ff f9 	call -5256 <restore_interrupts>
c000476c:	59 a0 00 a8 	load_32 s2, 40(s25)
c0004770:	19 80 00 a8 	load_32 s0, 32(s25)
c0004774:	00 30 00 a8 	load_32 s0, 12(s0)
c0004778:	60 04 00 05 	add_i s3, s0, 1
c000477c:	00 00 fc c0 	move s0, s24
c0004780:	20 00 fc c0 	move s1, s24
c0004784:	ab fa ff f9 	call -5460 <jump_to_user_mode>

spawn_kernel_thread:
c0004788:	de 03 ff 05 	add_i sp, sp, -64
c000478c:	fe f3 00 88 	store_32 ra, 60(sp)
c0004790:	64 00 c0 4f 	movehi s3, 393220
c0004794:	80 00 f1 c0 	move s4, s2
c0004798:	42 00 c0 4f 	movehi s2, 393218
c000479c:	a3 70 46 00 	or s5, s3, 4508
c00047a0:	60 80 f0 c0 	move s3, s1
c00047a4:	42 00 1f 00 	or s2, s2, 1984
c00047a8:	25 00 00 a8 	load_32 s1, (s5)
c00047ac:	a0 04 00 0f 	move s5, 1
c00047b0:	1e fe ff f9 	call -1928 <spawn_thread_internal>
c00047b4:	fe f3 00 a8 	load_32 ra, 60(sp)
c00047b8:	de 03 01 05 	add_i sp, sp, 64
c00047bc:	1f 00 00 f0 	ret

kernel_thread_kernel_start:
c00047c0:	de 03 ff 05 	add_i sp, sp, -64
c00047c4:	1e f3 00 88 	store_32 s24, 60(sp)
c00047c8:	fe e3 00 88 	store_32 ra, 56(sp)
c00047cc:	24 00 c0 4f 	movehi s1, 393220
c00047d0:	00 00 00 ac 	getcr s0, 0
c00047d4:	44 00 c0 4f 	movehi s2, 393220
c00047d8:	21 70 53 00 	or s1, s1, 5340
c00047dc:	00 08 00 0b 	shl s0, s0, 2
c00047e0:	01 00 50 c0 	add_i s0, s1, s0
c00047e4:	22 a0 46 00 	or s1, s2, 4520
c00047e8:	00 03 00 a8 	load_32 s24, (s0)
c00047ec:	00 00 00 0f 	move s0, 0
c00047f0:	01 00 00 88 	store_32 s0, (s1)
c00047f4:	00 1c 00 0f 	move s0, 7
c00047f8:	00 00 00 e8 	membar
c00047fc:	b9 fa ff f9 	call -5404 <restore_interrupts>
c0004800:	38 a0 00 a8 	load_32 s1, 40(s24)
c0004804:	18 b0 00 a8 	load_32 s0, 44(s24)
c0004808:	21 00 00 fc 	call s1
c000480c:	81 00 00 f8 	call 516 <thread_exit>

disable_preempt:
c0004810:	04 00 c0 4f 	movehi s0, 393220
c0004814:	20 00 00 ac 	getcr s1, 0
c0004818:	00 c0 46 00 	or s0, s0, 4528
c000481c:	21 08 00 0b 	shl s1, s1, 2
c0004820:	00 80 50 c0 	add_i s0, s0, s1
c0004824:	20 00 00 aa 	load_sync s1, (s0)
c0004828:	41 04 00 05 	add_i s2, s1, 1
c000482c:	20 80 f0 c0 	move s1, s1
c0004830:	40 00 00 8a 	store_sync s2, (s0)  
c0004834:	82 ff ff f3 	bz s2, -16 <disable_preempt+0x14>
c0004838:	1f 00 00 f0 	ret

enable_preempt:
c000483c:	04 00 c0 4f 	movehi s0, 393220
c0004840:	20 00 00 ac 	getcr s1, 0
c0004844:	00 c0 46 00 	or s0, s0, 4528
c0004848:	21 08 00 0b 	shl s1, s1, 2
c000484c:	00 80 50 c0 	add_i s0, s0, s1
c0004850:	20 00 00 aa 	load_sync s1, (s0)
c0004854:	41 fc ff 05 	add_i s2, s1, -1
c0004858:	20 80 f0 c0 	move s1, s1
c000485c:	40 00 00 8a 	store_sync s2, (s0)  
c0004860:	82 ff ff f3 	bz s2, -16 <enable_preempt+0x14>
c0004864:	1f 00 00 f0 	ret

exec_program:
c0004868:	de 03 fe 05 	add_i sp, sp, -128
c000486c:	1e f3 01 88 	store_32 s24, 124(sp)
c0004870:	3e e3 01 88 	store_32 s25, 120(sp)
c0004874:	5e d3 01 88 	store_32 s26, 116(sp)
c0004878:	fe c3 01 88 	store_32 ra, 112(sp)
c000487c:	20 03 f0 c0 	move s25, s0
c0004880:	04 00 c0 4f 	movehi s0, 393220
c0004884:	00 20 40 00 	or s0, s0, 4104
c0004888:	a4 fc ff f9 	call -3440 <slab_alloc>
c000488c:	24 00 c0 4f 	movehi s1, 393220
c0004890:	00 03 f0 c0 	move s24, s0
c0004894:	01 80 46 00 	or s0, s1, 4512
c0004898:	20 00 00 aa 	load_sync s1, (s0)
c000489c:	41 04 00 05 	add_i s2, s1, 1
c00048a0:	20 80 f0 c0 	move s1, s1
c00048a4:	40 00 00 8a 	store_sync s2, (s0)  
c00048a8:	82 ff ff f3 	bz s2, -16 <exec_program+0x30>
c00048ac:	38 30 00 88 	store_32 s1, 12(s24)
c00048b0:	a5 0a 00 f8 	call 10900 <create_address_space>
c00048b4:	18 70 00 88 	store_32 s0, 28(s24)
c00048b8:	00 08 00 0f 	move s0, 2
c00048bc:	40 03 00 0f 	move s26, 0
c00048c0:	58 43 00 88 	store_32 s26, 16(s24)
c00048c4:	18 00 00 88 	store_32 s0, (s24)
c00048c8:	18 50 00 05 	add_i s0, s24, 20
c00048cc:	18 60 00 88 	store_32 s0, 24(s24)
c00048d0:	18 50 00 88 	store_32 s0, 20(s24)
c00048d4:	7b fa ff f9 	call -5652 <disable_interrupts>
c00048d8:	24 00 c0 4f 	movehi s1, 393220
c00048dc:	40 04 00 0f 	move s2, 1
c00048e0:	21 b0 46 00 	or s1, s1, 4524
c00048e4:	61 00 00 a8 	load_32 s3, (s1)
c00048e8:	e3 ff ff f5 	bnz s3, -4 <exec_program+0x7C>
c00048ec:	61 00 00 aa 	load_sync s3, (s1)
c00048f0:	83 00 1d c1 	cmpne_i s4, s3, s26
c00048f4:	84 00 00 f4 	bnz s4, 16 <exec_program+0x9C>
c00048f8:	80 00 f1 c0 	move s4, s2
c00048fc:	81 00 00 8a 	store_sync s4, (s1)  
c0004900:	64 ff ff f3 	bz s4, -20 <exec_program+0x84>
c0004904:	63 00 00 10 	cmpeq_i s3, s3, 0
c0004908:	63 04 00 01 	and s3, s3, 1
c000490c:	c3 fe ff f3 	bz s3, -40 <exec_program+0x7C>
c0004910:	44 00 c0 4f 	movehi s2, 393220
c0004914:	42 50 46 00 	or s2, s2, 4500
c0004918:	62 00 00 a8 	load_32 s3, (s2)
c000491c:	78 00 00 88 	store_32 s3, (s24)
c0004920:	58 10 00 88 	store_32 s2, 4(s24)
c0004924:	03 13 00 88 	store_32 s24, 4(s3)
c0004928:	58 10 00 a8 	load_32 s2, 4(s24)
c000492c:	02 03 00 88 	store_32 s24, (s2)
c0004930:	41 03 00 88 	store_32 s26, (s1)
c0004934:	00 00 00 e8 	membar
c0004938:	6a fa ff f9 	call -5720 <restore_interrupts>
c000493c:	00 00 fc c0 	move s0, s24
c0004940:	5e b0 01 05 	add_i s2, sp, 108
c0004944:	20 80 fc c0 	move s1, s25
c0004948:	fb 00 00 f8 	call 1004 <load_program>
c000494c:	00 fc ff 12 	cmpgt_i s0, s0, -1
c0004950:	40 00 00 f4 	bnz s0, 8 <exec_program+0xF0>
c0004954:	0c 00 00 f6 	b 48 <exec_program+0x11C>
c0004958:	00 00 c0 4f 	movehi s0, 393216
c000495c:	7e b0 01 a8 	load_32 s3, 108(sp)
c0004960:	22 00 c0 4f 	movehi s1, 393218
c0004964:	80 00 00 0f 	move s4, 0
c0004968:	00 40 10 00 	or s0, s0, 1040
c000496c:	41 c0 26 00 	or s2, s1, 2480
c0004970:	20 00 fc c0 	move s1, s24
c0004974:	a0 00 f2 c0 	move s5, s4
c0004978:	ac fd ff f9 	call -2384 <spawn_thread_internal>
c000497c:	40 03 fc c0 	move s26, s24
c0004980:	05 00 00 f6 	b 20 <exec_program+0x12C>
c0004984:	00 00 c0 4f 	movehi s0, 393216
c0004988:	00 ec 0f 00 	or s0, s0, 1019
c000498c:	1e 00 00 88 	store_32 s0, (sp)
c0004990:	36 f6 ff f9 	call -10024 <kprintf>
c0004994:	00 00 fd c0 	move s0, s26
c0004998:	fe c3 01 a8 	load_32 ra, 112(sp)
c000499c:	5e d3 01 a8 	load_32 s26, 116(sp)
c00049a0:	3e e3 01 a8 	load_32 s25, 120(sp)
c00049a4:	1e f3 01 a8 	load_32 s24, 124(sp)
c00049a8:	de 03 02 05 	add_i sp, sp, 128
c00049ac:	1f 00 00 f0 	ret

new_process_start:
c00049b0:	de 03 ff 05 	add_i sp, sp, -64
c00049b4:	1e f3 00 88 	store_32 s24, 60(sp)
c00049b8:	3e e3 00 88 	store_32 s25, 56(sp)
c00049bc:	fe d3 00 88 	store_32 ra, 52(sp)
c00049c0:	24 00 c0 4f 	movehi s1, 393220
c00049c4:	00 00 00 ac 	getcr s0, 0
c00049c8:	44 00 c0 4f 	movehi s2, 393220
c00049cc:	00 03 00 0f 	move s24, 0
c00049d0:	21 70 53 00 	or s1, s1, 5340
c00049d4:	00 08 00 0b 	shl s0, s0, 2
c00049d8:	01 00 50 c0 	add_i s0, s1, s0
c00049dc:	22 a0 46 00 	or s1, s2, 4520
c00049e0:	20 03 00 a8 	load_32 s25, (s0)
c00049e4:	00 1c 00 0f 	move s0, 7
c00049e8:	01 03 00 88 	store_32 s24, (s1)
c00049ec:	00 00 00 e8 	membar
c00049f0:	3c fa ff f9 	call -5904 <restore_interrupts>
c00049f4:	59 a0 00 a8 	load_32 s2, 40(s25)
c00049f8:	19 80 00 a8 	load_32 s0, 32(s25)
c00049fc:	00 30 00 a8 	load_32 s0, 12(s0)
c0004a00:	60 04 00 05 	add_i s3, s0, 1
c0004a04:	00 00 fc c0 	move s0, s24
c0004a08:	20 00 fc c0 	move s1, s24
c0004a0c:	09 fa ff f9 	call -6108 <jump_to_user_mode>

thread_exit:
c0004a10:	de 03 fe 05 	add_i sp, sp, -128
c0004a14:	1e f3 01 88 	store_32 s24, 124(sp)
c0004a18:	fe e3 01 88 	store_32 ra, 120(sp)
c0004a1c:	04 00 c0 4f 	movehi s0, 393220
c0004a20:	20 00 00 ac 	getcr s1, 0
c0004a24:	00 70 53 00 	or s0, s0, 5340
c0004a28:	21 08 00 0b 	shl s1, s1, 2
c0004a2c:	00 80 50 c0 	add_i s0, s0, s1
c0004a30:	00 03 00 a8 	load_32 s24, (s0)
c0004a34:	23 fa ff f9 	call -6004 <disable_interrupts>
c0004a38:	04 00 c0 4f 	movehi s0, 393220
c0004a3c:	40 04 00 0f 	move s2, 1
c0004a40:	20 00 00 0f 	move s1, 0
c0004a44:	00 a0 46 00 	or s0, s0, 4520
c0004a48:	60 00 00 a8 	load_32 s3, (s0)
c0004a4c:	e3 ff ff f5 	bnz s3, -4 <thread_exit+0x38>
c0004a50:	60 00 00 aa 	load_sync s3, (s0)
c0004a54:	83 80 10 c1 	cmpne_i s4, s3, s1
c0004a58:	84 00 00 f4 	bnz s4, 16 <thread_exit+0x58>
c0004a5c:	80 00 f1 c0 	move s4, s2
c0004a60:	80 00 00 8a 	store_sync s4, (s0)  
c0004a64:	64 ff ff f3 	bz s4, -20 <thread_exit+0x40>
c0004a68:	63 00 00 10 	cmpeq_i s3, s3, 0
c0004a6c:	63 04 00 01 	and s3, s3, 1
c0004a70:	c3 fe ff f3 	bz s3, -40 <thread_exit+0x38>
c0004a74:	44 00 c0 4f 	movehi s2, 393220
c0004a78:	42 30 46 00 	or s2, s2, 4492
c0004a7c:	62 00 00 a8 	load_32 s3, (s2)
c0004a80:	78 00 00 88 	store_32 s3, (s24)
c0004a84:	58 10 00 88 	store_32 s2, 4(s24)
c0004a88:	03 13 00 88 	store_32 s24, 4(s3)
c0004a8c:	58 10 00 a8 	load_32 s2, 4(s24)
c0004a90:	02 03 00 88 	store_32 s24, (s2)
c0004a94:	20 00 00 88 	store_32 s1, (s0)
c0004a98:	00 0c 00 0f 	move s0, 3
c0004a9c:	00 00 00 e8 	membar
c0004aa0:	18 c0 00 88 	store_32 s0, 48(s24)
c0004aa4:	a5 fe ff f9 	call -1388 <reschedule>
c0004aa8:	00 00 c0 4f 	movehi s0, 393216
c0004aac:	00 70 10 00 	or s0, s0, 1052
c0004ab0:	1e 00 00 88 	store_32 s0, (sp)
c0004ab4:	b9 f7 ff f9 	call -8476 <panic>

make_thread_ready:
c0004ab8:	de 03 fe 05 	add_i sp, sp, -128
c0004abc:	1e f3 01 88 	store_32 s24, 124(sp)
c0004ac0:	fe e3 01 88 	store_32 ra, 120(sp)
c0004ac4:	00 03 f0 c0 	move s24, s0
c0004ac8:	18 c0 00 a8 	load_32 s0, 48(s24)
c0004acc:	20 0c 00 10 	cmpeq_i s1, s0, 3
c0004ad0:	a1 04 00 f4 	bnz s1, 148 <make_thread_ready+0xAC>
c0004ad4:	20 04 00 10 	cmpeq_i s1, s0, 1
c0004ad8:	01 05 00 f4 	bnz s1, 160 <make_thread_ready+0xC0>
c0004adc:	40 00 00 f4 	bnz s0, 8 <make_thread_ready+0x2C>
c0004ae0:	2b 00 00 f6 	b 172 <make_thread_ready+0xD4>
c0004ae4:	f7 f9 ff f9 	call -6180 <disable_interrupts>
c0004ae8:	24 00 c0 4f 	movehi s1, 393220
c0004aec:	60 04 00 0f 	move s3, 1
c0004af0:	40 00 00 0f 	move s2, 0
c0004af4:	21 a0 46 00 	or s1, s1, 4520
c0004af8:	81 00 00 a8 	load_32 s4, (s1)
c0004afc:	e4 ff ff f5 	bnz s4, -4 <make_thread_ready+0x40>
c0004b00:	81 00 00 aa 	load_sync s4, (s1)
c0004b04:	a4 00 11 c1 	cmpne_i s5, s4, s2
c0004b08:	85 00 00 f4 	bnz s5, 16 <make_thread_ready+0x60>
c0004b0c:	a0 80 f1 c0 	move s5, s3
c0004b10:	a1 00 00 8a 	store_sync s5, (s1)  
c0004b14:	65 ff ff f3 	bz s5, -20 <make_thread_ready+0x48>
c0004b18:	84 00 00 10 	cmpeq_i s4, s4, 0
c0004b1c:	84 04 00 01 	and s4, s4, 1
c0004b20:	c4 fe ff f3 	bz s4, -40 <make_thread_ready+0x40>
c0004b24:	64 00 c0 4f 	movehi s3, 393220
c0004b28:	58 c0 00 88 	store_32 s2, 48(s24)
c0004b2c:	63 10 46 00 	or s3, s3, 4484
c0004b30:	83 00 00 a8 	load_32 s4, (s3)
c0004b34:	98 00 00 88 	store_32 s4, (s24)
c0004b38:	78 10 00 88 	store_32 s3, 4(s24)
c0004b3c:	04 13 00 88 	store_32 s24, 4(s4)
c0004b40:	78 10 00 a8 	load_32 s3, 4(s24)
c0004b44:	03 03 00 88 	store_32 s24, (s3)
c0004b48:	41 00 00 88 	store_32 s2, (s1)
c0004b4c:	00 00 00 e8 	membar
c0004b50:	e4 f9 ff f9 	call -6256 <restore_interrupts>
c0004b54:	fe e3 01 a8 	load_32 ra, 120(sp)
c0004b58:	1e f3 01 a8 	load_32 s24, 124(sp)
c0004b5c:	de 03 02 05 	add_i sp, sp, 128
c0004b60:	1f 00 00 f0 	ret
c0004b64:	00 00 c0 4f 	movehi s0, 393216
c0004b68:	20 1c 06 0f 	move s1, 391
c0004b6c:	3e 20 00 88 	store_32 s1, 8(sp)
c0004b70:	00 bc 11 00 	or s0, s0, 1135
c0004b74:	0a 00 00 f6 	b 40 <make_thread_ready+0xE4>
c0004b78:	00 00 c0 4f 	movehi s0, 393216
c0004b7c:	20 18 06 0f 	move s1, 390
c0004b80:	3e 20 00 88 	store_32 s1, 8(sp)
c0004b84:	00 4c 11 00 	or s0, s0, 1107
c0004b88:	05 00 00 f6 	b 20 <make_thread_ready+0xE4>
c0004b8c:	00 00 c0 4f 	movehi s0, 393216
c0004b90:	20 14 06 0f 	move s1, 389
c0004b94:	3e 20 00 88 	store_32 s1, 8(sp)
c0004b98:	00 e4 10 00 	or s0, s0, 1081
c0004b9c:	20 00 c0 4f 	movehi s1, 393216
c0004ba0:	1e 30 00 88 	store_32 s0, 12(sp)
c0004ba4:	00 00 c0 4f 	movehi s0, 393216
c0004ba8:	21 88 0d 00 	or s1, s1, 866
c0004bac:	3e 10 00 88 	store_32 s1, 4(sp)
c0004bb0:	00 e4 04 00 	or s0, s0, 313
c0004bb4:	1e 00 00 88 	store_32 s0, (sp)
c0004bb8:	78 f7 ff f9 	call -8736 <panic>

dump_process_list:
c0004bbc:	de 03 fe 05 	add_i sp, sp, -128
c0004bc0:	1e f3 01 88 	store_32 s24, 124(sp)
c0004bc4:	3e e3 01 88 	store_32 s25, 120(sp)
c0004bc8:	5e d3 01 88 	store_32 s26, 116(sp)
c0004bcc:	7e c3 01 88 	store_32 s27, 112(sp)
c0004bd0:	9e b3 01 88 	store_32 s28, 108(sp)
c0004bd4:	fe a3 01 88 	store_32 ra, 104(sp)
c0004bd8:	00 00 c0 4f 	movehi s0, 393216
c0004bdc:	00 20 12 00 	or s0, s0, 1160
c0004be0:	1e 00 00 88 	store_32 s0, (sp)
c0004be4:	a1 f5 ff f9 	call -10620 <kprintf>
c0004be8:	b6 f9 ff f9 	call -6440 <disable_interrupts>
c0004bec:	24 00 c0 4f 	movehi s1, 393220
c0004bf0:	1e 50 01 88 	store_32 s0, 84(sp)
c0004bf4:	60 07 00 0f 	move s27, 1
c0004bf8:	40 00 00 0f 	move s2, 0
c0004bfc:	21 b3 46 00 	or s25, s1, 4524
c0004c00:	19 00 00 a8 	load_32 s0, (s25)
c0004c04:	e0 ff ff f5 	bnz s0, -4 <dump_process_list+0x44>
c0004c08:	19 00 00 aa 	load_sync s0, (s25)
c0004c0c:	20 00 11 c1 	cmpne_i s1, s0, s2
c0004c10:	81 00 00 f4 	bnz s1, 16 <dump_process_list+0x64>
c0004c14:	20 80 fd c0 	move s1, s27
c0004c18:	39 00 00 8a 	store_sync s1, (s25)  
c0004c1c:	61 ff ff f3 	bz s1, -20 <dump_process_list+0x4C>
c0004c20:	00 00 00 10 	cmpeq_i s0, s0, 0
c0004c24:	00 04 00 01 	and s0, s0, 1
c0004c28:	c0 fe ff f3 	bz s0, -40 <dump_process_list+0x44>
c0004c2c:	04 00 c0 4f 	movehi s0, 393220
c0004c30:	00 50 46 00 	or s0, s0, 4500
c0004c34:	00 13 00 a8 	load_32 s24, 4(s0)
c0004c38:	1e 80 01 88 	store_32 s0, 96(sp)
c0004c3c:	18 00 00 c1 	cmpeq_i s0, s24, s0
c0004c40:	20 06 00 f4 	bnz s0, 196 <dump_process_list+0x148>
c0004c44:	20 00 c0 4f 	movehi s1, 393216
c0004c48:	00 00 c0 4f 	movehi s0, 393216
c0004c4c:	41 8b 12 00 	or s26, s1, 1186
c0004c50:	00 58 12 00 	or s0, s0, 1174
c0004c54:	1e 60 01 88 	store_32 s0, 88(sp)
c0004c58:	7e 73 01 88 	store_32 s27, 92(sp)
c0004c5c:	5e 90 01 88 	store_32 s2, 100(sp)
c0004c60:	18 30 00 a8 	load_32 s0, 12(s24)
c0004c64:	1e 10 00 88 	store_32 s0, 4(sp)
c0004c68:	1e 60 01 a8 	load_32 s0, 88(sp)
c0004c6c:	1e 00 00 88 	store_32 s0, (sp)
c0004c70:	7e f5 ff f9 	call -10760 <kprintf>
c0004c74:	7e 90 01 a8 	load_32 s3, 100(sp)
c0004c78:	18 40 00 a8 	load_32 s0, 16(s24)
c0004c7c:	e0 ff ff f5 	bnz s0, -4 <dump_process_list+0xBC>
c0004c80:	18 40 00 05 	add_i s0, s24, 16
c0004c84:	20 00 00 aa 	load_sync s1, (s0)
c0004c88:	41 80 11 c1 	cmpne_i s2, s1, s3
c0004c8c:	82 00 00 f4 	bnz s2, 16 <dump_process_list+0xE0>
c0004c90:	40 80 fd c0 	move s2, s27
c0004c94:	40 00 00 8a 	store_sync s2, (s0)  
c0004c98:	62 ff ff f3 	bz s2, -20 <dump_process_list+0xC8>
c0004c9c:	01 00 00 10 	cmpeq_i s0, s1, 0
c0004ca0:	00 04 00 01 	and s0, s0, 1
c0004ca4:	a0 fe ff f3 	bz s0, -44 <dump_process_list+0xBC>
c0004ca8:	78 63 00 a8 	load_32 s27, 24(s24)
c0004cac:	98 53 00 05 	add_i s28, s24, 20
c0004cb0:	1c 80 0d c1 	cmpeq_i s0, s28, s27
c0004cb4:	80 01 00 f4 	bnz s0, 48 <dump_process_list+0x128>
c0004cb8:	3b 20 00 a8 	load_32 s1, 8(s27)
c0004cbc:	5b b0 00 05 	add_i s2, s27, 44
c0004cc0:	1b e0 ff 05 	add_i s0, s27, -8
c0004cc4:	5e 30 00 88 	store_32 s2, 12(sp)
c0004cc8:	1e 20 00 88 	store_32 s0, 8(sp)
c0004ccc:	3e 10 00 88 	store_32 s1, 4(sp)
c0004cd0:	5e 03 00 88 	store_32 s26, (sp)
c0004cd4:	65 f5 ff f9 	call -10860 <kprintf>
c0004cd8:	7b 13 00 a8 	load_32 s27, 4(s27)
c0004cdc:	1c 80 1d c1 	cmpne_i s0, s28, s27
c0004ce0:	c0 fe ff f5 	bnz s0, -40 <dump_process_list+0xFC>
c0004ce4:	5e 90 01 a8 	load_32 s2, 100(sp)
c0004ce8:	58 40 00 88 	store_32 s2, 16(s24)
c0004cec:	00 00 00 e8 	membar
c0004cf0:	18 13 00 a8 	load_32 s24, 4(s24)
c0004cf4:	1e 80 01 a8 	load_32 s0, 96(sp)
c0004cf8:	7e 73 01 a8 	load_32 s27, 92(sp)
c0004cfc:	18 00 10 c1 	cmpne_i s0, s24, s0
c0004d00:	00 fb ff f5 	bnz s0, -160 <dump_process_list+0xA4>
c0004d04:	59 00 00 88 	store_32 s2, (s25)
c0004d08:	00 00 00 e8 	membar
c0004d0c:	1e 50 01 a8 	load_32 s0, 84(sp)
c0004d10:	74 f9 ff f9 	call -6704 <restore_interrupts>
c0004d14:	fe a3 01 a8 	load_32 ra, 104(sp)
c0004d18:	9e b3 01 a8 	load_32 s28, 108(sp)
c0004d1c:	7e c3 01 a8 	load_32 s27, 112(sp)
c0004d20:	5e d3 01 a8 	load_32 s26, 116(sp)
c0004d24:	3e e3 01 a8 	load_32 s25, 120(sp)
c0004d28:	1e f3 01 a8 	load_32 s24, 124(sp)
c0004d2c:	de 03 02 05 	add_i sp, sp, 128
c0004d30:	1f 00 00 f0 	ret

load_program:
c0004d34:	de 03 f8 05 	add_i sp, sp, -512
c0004d38:	1e f3 07 88 	store_32 s24, 508(sp)
c0004d3c:	3e e3 07 88 	store_32 s25, 504(sp)
c0004d40:	5e d3 07 88 	store_32 s26, 500(sp)
c0004d44:	7e c3 07 88 	store_32 s27, 496(sp)
c0004d48:	9e b3 07 88 	store_32 s28, 492(sp)
c0004d4c:	fe a3 07 88 	store_32 ra, 488(sp)
c0004d50:	00 03 f1 c0 	move s24, s2
c0004d54:	20 03 f0 c0 	move s25, s0
c0004d58:	00 80 f0 c0 	move s0, s1
c0004d5c:	2b 01 00 f8 	call 1196 <open_file>
c0004d60:	80 03 f0 c0 	move s28, s0
c0004d64:	5c 00 00 f4 	bnz s28, 8 <load_program+0x38>
c0004d68:	12 00 00 f6 	b 72 <load_program+0x7C>
c0004d6c:	40 03 00 0f 	move s26, 0
c0004d70:	00 00 fe c0 	move s0, s28
c0004d74:	5e c0 06 05 	add_i s2, sp, 432
c0004d78:	60 d0 00 0f 	move s3, 52
c0004d7c:	20 00 fd c0 	move s1, s26
c0004d80:	d1 01 00 f8 	call 1860 <read_file>
c0004d84:	00 fc ff 12 	cmpgt_i s0, s0, -1
c0004d88:	40 00 00 f4 	bnz s0, 8 <load_program+0x5C>
c0004d8c:	0c 00 00 f6 	b 48 <load_program+0x88>
c0004d90:	22 4c 46 4f 	movehi s1, 143970
c0004d94:	1e c0 06 a8 	load_32 s0, 432(sp)
c0004d98:	21 fc 15 00 	or s1, s1, 1407
c0004d9c:	00 80 00 c1 	cmpeq_i s0, s0, s1
c0004da0:	40 01 00 f4 	bnz s0, 40 <load_program+0x94>
c0004da4:	00 00 c0 4f 	movehi s0, 393216
c0004da8:	00 ec 14 00 	or s0, s0, 1339
c0004dac:	15 00 00 f6 	b 84 <load_program+0xCC>
c0004db0:	00 00 c0 4f 	movehi s0, 393216
c0004db4:	00 94 13 00 	or s0, s0, 1253
c0004db8:	12 00 00 f6 	b 72 <load_program+0xCC>
c0004dbc:	00 00 c0 4f 	movehi s0, 393216
c0004dc0:	00 48 14 00 	or s0, s0, 1298
c0004dc4:	0f 00 00 f6 	b 60 <load_program+0xCC>
c0004dc8:	21 00 00 4f 	movehi s1, 1
c0004dcc:	1e 08 07 a4 	load_u16 s0, 450(sp)
c0004dd0:	21 3c 1c 00 	or s1, s1, 1807
c0004dd4:	00 80 00 c1 	cmpeq_i s0, s0, s1
c0004dd8:	40 00 00 f4 	bnz s0, 8 <load_program+0xAC>
c0004ddc:	07 00 00 f6 	b 28 <load_program+0xC4>
c0004de0:	1e 70 07 a4 	load_u16 s0, 476(sp)
c0004de4:	20 2c 00 18 	cmplt_u s1, s0, 11
c0004de8:	21 02 00 f4 	bnz s1, 68 <load_program+0xF8>
c0004dec:	00 00 c0 4f 	movehi s0, 393216
c0004df0:	00 00 16 00 	or s0, s0, 1408
c0004df4:	03 00 00 f6 	b 12 <load_program+0xCC>
c0004df8:	00 00 c0 4f 	movehi s0, 393216
c0004dfc:	00 68 15 00 	or s0, s0, 1370
c0004e00:	1e 00 00 88 	store_32 s0, (sp)
c0004e04:	19 f5 ff f9 	call -11164 <kprintf>
c0004e08:	00 fc ff 0f 	move s0, -1
c0004e0c:	fe a3 07 a8 	load_32 ra, 488(sp)
c0004e10:	9e b3 07 a8 	load_32 s28, 492(sp)
c0004e14:	7e c3 07 a8 	load_32 s27, 496(sp)
c0004e18:	5e d3 07 a8 	load_32 s26, 500(sp)
c0004e1c:	3e e3 07 a8 	load_32 s25, 504(sp)
c0004e20:	1e f3 07 a8 	load_32 s24, 508(sp)
c0004e24:	de 03 08 05 	add_i sp, sp, 512
c0004e28:	1f 00 00 f0 	ret
c0004e2c:	40 00 00 f4 	bnz s0, 8 <load_program+0x100>
c0004e30:	d3 00 00 f6 	b 844 <load_program+0x448>
c0004e34:	3e 30 07 a8 	load_32 s1, 460(sp)
c0004e38:	60 14 00 0b 	shl s3, s0, 5
c0004e3c:	5e c0 01 05 	add_i s2, sp, 112
c0004e40:	00 00 fe c0 	move s0, s28
c0004e44:	5e 80 01 88 	store_32 s2, 96(sp)
c0004e48:	9f 01 00 f8 	call 1660 <read_file>
c0004e4c:	00 fc ff 12 	cmpgt_i s0, s0, -1
c0004e50:	40 00 00 f4 	bnz s0, 8 <load_program+0x124>
c0004e54:	cd 00 00 f6 	b 820 <load_program+0x454>
c0004e58:	00 00 fd c0 	move s0, s26
c0004e5c:	c8 0b 00 f8 	call 12064 <create_vm_cache>
c0004e60:	1e 40 01 88 	store_32 s0, 80(sp)
c0004e64:	80 23 00 88 	store_32 s28, 8(s0)
c0004e68:	1e 70 07 a4 	load_u16 s0, 476(sp)
c0004e6c:	9e 80 01 a8 	load_32 s4, 96(sp)
c0004e70:	60 16 00 f2 	bz s0, 716 <load_program+0x408>
c0004e74:	00 00 c0 4f 	movehi s0, 393216
c0004e78:	20 00 c0 4f 	movehi s1, 393216
c0004e7c:	40 03 00 0f 	move s26, 0
c0004e80:	00 00 18 00 	or s0, s0, 1536
c0004e84:	1e 70 01 88 	store_32 s0, 92(sp)
c0004e88:	01 44 19 00 	or s0, s1, 1617
c0004e8c:	1e 60 01 88 	store_32 s0, 88(sp)
c0004e90:	00 08 00 0f 	move s0, 2
c0004e94:	1e 30 01 88 	store_32 s0, 76(sp)
c0004e98:	80 03 fd c0 	move s28, s26
c0004e9c:	5e 93 01 88 	store_32 s26, 100(sp)
c0004ea0:	1e 53 01 88 	store_32 s24, 84(sp)
c0004ea4:	1c 14 00 0b 	shl s0, s28, 5
c0004ea8:	64 03 50 c0 	add_i s27, s4, s0
c0004eac:	1b 00 00 a0 	load_u8 s0, (s27)
c0004eb0:	00 04 00 01 	and s0, s0, 1
c0004eb4:	c0 13 00 f2 	bz s0, 632 <load_program+0x3F8>
c0004eb8:	1b 50 00 a0 	load_u8 s0, 20(s27)
c0004ebc:	3b 54 00 a0 	load_u8 s1, 21(s27)
c0004ec0:	5b 58 00 a0 	load_u8 s2, 22(s27)
c0004ec4:	7b 5c 00 a0 	load_u8 s3, 23(s27)
c0004ec8:	21 20 00 0b 	shl s1, s1, 8
c0004ecc:	63 20 00 0b 	shl s3, s3, 8
c0004ed0:	01 00 00 c0 	or s0, s1, s0
c0004ed4:	43 00 01 c0 	or s2, s3, s2
c0004ed8:	42 40 00 0b 	shl s2, s2, 16
c0004edc:	02 00 00 c0 	or s0, s2, s0
c0004ee0:	60 12 00 f2 	bz s0, 588 <load_program+0x3F8>
c0004ee4:	3b 10 00 00 	or s1, s27, 4
c0004ee8:	3e b0 01 88 	store_32 s1, 108(sp)
c0004eec:	5b 14 00 00 	or s2, s27, 5
c0004ef0:	7b 18 00 00 	or s3, s27, 6
c0004ef4:	9b 1c 00 00 	or s4, s27, 7
c0004ef8:	21 00 00 a0 	load_u8 s1, (s1)
c0004efc:	42 00 00 a0 	load_u8 s2, (s2)
c0004f00:	1b 23 00 05 	add_i s24, s27, 8
c0004f04:	63 00 00 a0 	load_u8 s3, (s3)
c0004f08:	84 00 00 a0 	load_u8 s4, (s4)
c0004f0c:	bb 20 00 a0 	load_u8 s5, 8(s27)
c0004f10:	db 24 00 a0 	load_u8 s6, 9(s27)
c0004f14:	42 20 00 0b 	shl s2, s2, 8
c0004f18:	fb 28 00 a0 	load_u8 s7, 10(s27)
c0004f1c:	1b 2d 00 a0 	load_u8 s8, 11(s27)
c0004f20:	84 20 00 0b 	shl s4, s4, 8
c0004f24:	22 80 00 c0 	or s1, s2, s1
c0004f28:	64 80 01 c0 	or s3, s4, s3
c0004f2c:	48 20 00 0b 	shl s2, s8, 8
c0004f30:	86 20 00 0b 	shl s4, s6, 8
c0004f34:	db 40 00 a0 	load_u8 s6, 16(s27)
c0004f38:	63 40 00 0b 	shl s3, s3, 16
c0004f3c:	42 80 03 c0 	or s2, s2, s7
c0004f40:	fb 44 00 a0 	load_u8 s7, 17(s27)
c0004f44:	1b 49 00 a0 	load_u8 s8, 18(s27)
c0004f48:	3b 4d 00 a0 	load_u8 s9, 19(s27)
c0004f4c:	23 80 00 c0 	or s1, s3, s1
c0004f50:	64 80 02 c0 	or s3, s4, s5
c0004f54:	bb 60 00 a0 	load_u8 s5, 24(s27)
c0004f58:	42 40 00 0b 	shl s2, s2, 16
c0004f5c:	89 20 00 0b 	shl s4, s9, 8
c0004f60:	3b 65 00 a0 	load_u8 s9, 25(s27)
c0004f64:	5b 69 00 a0 	load_u8 s10, 26(s27)
c0004f68:	42 80 01 c0 	or s2, s2, s3
c0004f6c:	7b 6d 00 a0 	load_u8 s11, 27(s27)
c0004f70:	67 20 00 0b 	shl s3, s7, 8
c0004f74:	84 00 04 c0 	or s4, s4, s8
c0004f78:	63 00 03 c0 	or s3, s3, s6
c0004f7c:	eb 20 00 0b 	shl s7, s11, 8
c0004f80:	84 40 00 0b 	shl s4, s4, 16
c0004f84:	c7 00 05 c0 	or s6, s7, s10
c0004f88:	64 80 01 c0 	or s3, s4, s3
c0004f8c:	89 20 00 0b 	shl s4, s9, 8
c0004f90:	c6 40 00 0b 	shl s6, s6, 16
c0004f94:	fb 50 00 05 	add_i s7, s27, 20
c0004f98:	fe a0 01 88 	store_32 s7, 104(sp)
c0004f9c:	1e 50 00 88 	store_32 s0, 20(sp)
c0004fa0:	84 80 02 c0 	or s4, s4, s5
c0004fa4:	9e 13 00 88 	store_32 s28, 4(sp)
c0004fa8:	86 00 02 c0 	or s4, s6, s4
c0004fac:	1e 70 01 a8 	load_32 s0, 92(sp)
c0004fb0:	1e 00 00 88 	store_32 s0, (sp)
c0004fb4:	9e 60 00 88 	store_32 s4, 24(sp)
c0004fb8:	7e 40 00 88 	store_32 s3, 16(sp)
c0004fbc:	5e 30 00 88 	store_32 s2, 12(sp)
c0004fc0:	3e 20 00 88 	store_32 s1, 8(sp)
c0004fc4:	a9 f4 ff f9 	call -11612 <kprintf>
c0004fc8:	1b 60 00 a0 	load_u8 s0, 24(s27)
c0004fcc:	3b 64 00 a0 	load_u8 s1, 25(s27)
c0004fd0:	5b 68 00 a0 	load_u8 s2, 26(s27)
c0004fd4:	7b 6c 00 a0 	load_u8 s3, 27(s27)
c0004fd8:	21 20 00 0b 	shl s1, s1, 8
c0004fdc:	63 20 00 0b 	shl s3, s3, 8
c0004fe0:	01 00 00 c0 	or s0, s1, s0
c0004fe4:	43 00 01 c0 	or s2, s3, s2
c0004fe8:	42 40 00 0b 	shl s2, s2, 16
c0004fec:	22 00 00 c0 	or s1, s2, s0
c0004ff0:	01 08 00 01 	and s0, s1, 2
c0004ff4:	40 00 00 f2 	bz s0, 8 <load_program+0x2C8>
c0004ff8:	04 00 00 f6 	b 16 <load_program+0x2D4>
c0004ffc:	de 40 01 a8 	load_32 s6, 80(sp)
c0005000:	5e 90 01 a8 	load_32 s2, 100(sp)
c0005004:	14 00 00 f6 	b 80 <load_program+0x320>
c0005008:	c0 00 fd c0 	move s6, s26
c000500c:	5e 30 01 a8 	load_32 s2, 76(sp)
c0005010:	3a 02 00 f4 	bnz s26, 68 <load_program+0x320>
c0005014:	1e 40 01 a8 	load_32 s0, 80(sp)
c0005018:	5b 63 00 05 	add_i s26, s27, 24
c000501c:	58 0b 00 f8 	call 11616 <create_vm_cache>
c0005020:	3a 00 00 a0 	load_u8 s1, (s26)
c0005024:	5a 04 00 a0 	load_u8 s2, 1(s26)
c0005028:	7a 08 00 a0 	load_u8 s3, 2(s26)
c000502c:	9a 0c 00 a0 	load_u8 s4, 3(s26)
c0005030:	c0 00 f0 c0 	move s6, s0
c0005034:	42 20 00 0b 	shl s2, s2, 8
c0005038:	40 03 f3 c0 	move s26, s6
c000503c:	84 20 00 0b 	shl s4, s4, 8
c0005040:	02 80 00 c0 	or s0, s2, s1
c0005044:	5e 30 01 a8 	load_32 s2, 76(sp)
c0005048:	64 80 01 c0 	or s3, s4, s3
c000504c:	63 40 00 0b 	shl s3, s3, 16
c0005050:	23 00 00 c0 	or s1, s3, s0
c0005054:	19 70 00 a8 	load_32 s0, 28(s25)
c0005058:	21 08 00 0b 	shl s1, s1, 2
c000505c:	78 00 00 a0 	load_u8 s3, (s24)
c0005060:	98 04 00 a0 	load_u8 s4, 1(s24)
c0005064:	b8 08 00 a0 	load_u8 s5, 2(s24)
c0005068:	21 10 00 01 	and s1, s1, 4
c000506c:	f8 0c 00 a0 	load_u8 s7, 3(s24)
c0005070:	1e a1 01 a8 	load_32 s8, 104(sp)
c0005074:	84 20 00 0b 	shl s4, s4, 8
c0005078:	e7 20 00 0b 	shl s7, s7, 8
c000507c:	e7 80 02 c0 	or s7, s7, s5
c0005080:	a1 00 01 c0 	or s5, s1, s2
c0005084:	24 80 01 c0 	or s1, s4, s3
c0005088:	68 00 00 a0 	load_u8 s3, (s8)
c000508c:	88 04 00 a0 	load_u8 s4, 1(s8)
c0005090:	47 40 00 0b 	shl s2, s7, 16
c0005094:	e8 08 00 a0 	load_u8 s7, 2(s8)
c0005098:	08 0d 00 a0 	load_u8 s8, 3(s8)
c000509c:	9e b1 01 a8 	load_32 s12, 108(sp)
c00050a0:	22 80 00 c0 	or s1, s2, s1
c00050a4:	84 20 00 0b 	shl s4, s4, 8
c00050a8:	48 20 00 0b 	shl s2, s8, 8
c00050ac:	2c 01 00 a0 	load_u8 s9, (s12)
c00050b0:	64 80 01 c0 	or s3, s4, s3
c00050b4:	4c 05 00 a0 	load_u8 s10, 1(s12)
c00050b8:	6c 09 00 a0 	load_u8 s11, 2(s12)
c00050bc:	42 80 03 c0 	or s2, s2, s7
c00050c0:	8c 0d 00 a0 	load_u8 s12, 3(s12)
c00050c4:	42 40 00 0b 	shl s2, s2, 16
c00050c8:	ea 20 00 0b 	shl s7, s10, 8
c00050cc:	0c 21 00 0b 	shl s8, s12, 8
c00050d0:	42 80 01 c0 	or s2, s2, s3
c00050d4:	67 80 04 c0 	or s3, s7, s9
c00050d8:	88 80 05 c0 	or s4, s8, s11
c00050dc:	84 40 00 0b 	shl s4, s4, 16
c00050e0:	e4 80 01 c0 	or s7, s4, s3
c00050e4:	7e 90 01 a8 	load_32 s3, 100(sp)
c00050e8:	9e 60 01 a8 	load_32 s4, 88(sp)
c00050ec:	c7 08 00 f8 	call 8988 <create_area>
c00050f0:	20 05 00 f2 	bz s0, 164 <load_program+0x460>
c00050f4:	3b 40 00 05 	add_i s1, s27, 16
c00050f8:	41 00 00 a0 	load_u8 s2, (s1)
c00050fc:	61 04 00 a0 	load_u8 s3, 1(s1)
c0005100:	81 08 00 a0 	load_u8 s4, 2(s1)
c0005104:	21 0c 00 a0 	load_u8 s1, 3(s1)
c0005108:	63 20 00 0b 	shl s3, s3, 8
c000510c:	21 20 00 0b 	shl s1, s1, 8
c0005110:	43 00 01 c0 	or s2, s3, s2
c0005114:	21 00 02 c0 	or s1, s1, s4
c0005118:	21 40 00 0b 	shl s1, s1, 16
c000511c:	21 00 01 c0 	or s1, s1, s2
c0005120:	20 60 00 88 	store_32 s1, 24(s0)
c0005124:	1e 53 01 a8 	load_32 s24, 84(sp)
c0005128:	9e 80 01 a8 	load_32 s4, 96(sp)
c000512c:	1e 70 07 a4 	load_u16 s0, 476(sp)
c0005130:	9c 07 00 05 	add_i s28, s28, 1
c0005134:	1c 00 40 c1 	cmplt_i s0, s28, s0
c0005138:	60 eb ff f5 	bnz s0, -660 <load_program+0x170>
c000513c:	1e 40 01 a8 	load_32 s0, 80(sp)
c0005140:	40 00 00 f2 	bz s0, 8 <load_program+0x414>
c0005144:	5f 0b 00 f8 	call 11644 <dec_cache_ref>
c0005148:	7a 00 00 f2 	bz s26, 12 <load_program+0x420>
c000514c:	00 00 fd c0 	move s0, s26
c0005150:	5c 0b 00 f8 	call 11632 <dec_cache_ref>
c0005154:	20 00 c0 4f 	movehi s1, 393216
c0005158:	1e 20 07 a8 	load_32 s0, 456(sp)
c000515c:	1e 10 00 88 	store_32 s0, 4(sp)
c0005160:	01 f8 19 00 	or s0, s1, 1662
c0005164:	1e 00 00 88 	store_32 s0, (sp)
c0005168:	40 f4 ff f9 	call -12032 <kprintf>
c000516c:	1e 20 07 a8 	load_32 s0, 456(sp)
c0005170:	18 00 00 88 	store_32 s0, (s24)
c0005174:	00 00 00 0f 	move s0, 0
c0005178:	25 ff ff f7 	b -876 <load_program+0xD8>
c000517c:	00 00 c0 4f 	movehi s0, 393216
c0005180:	00 ac 16 00 	or s0, s0, 1451
c0005184:	1f ff ff f7 	b -900 <load_program+0xCC>
c0005188:	00 00 c0 4f 	movehi s0, 393216
c000518c:	00 54 17 00 	or s0, s0, 1493
c0005190:	1c ff ff f7 	b -912 <load_program+0xCC>
c0005194:	00 00 c0 4f 	movehi s0, 393216
c0005198:	00 84 19 00 	or s0, s0, 1633
c000519c:	19 ff ff f7 	b -924 <load_program+0xCC>

read_block:
c00051a0:	de 03 ff 05 	add_i sp, sp, -64
c00051a4:	1e f3 00 88 	store_32 s24, 60(sp)
c00051a8:	fe e3 00 88 	store_32 ra, 56(sp)
c00051ac:	44 00 c0 4f 	movehi s2, 393220
c00051b0:	42 c0 48 00 	or s2, s2, 4656
c00051b4:	42 00 00 a0 	load_u8 s2, (s2)
c00051b8:	42 04 00 11 	cmpne_i s2, s2, 1
c00051bc:	82 01 00 f4 	bnz s2, 48 <read_block+0x4C>
c00051c0:	44 00 c0 4f 	movehi s2, 393220
c00051c4:	00 24 00 0b 	shl s0, s0, 9
c00051c8:	00 03 08 0f 	move s24, 512
c00051cc:	42 d0 48 00 	or s2, s2, 4660
c00051d0:	42 00 00 a8 	load_32 s2, (s2)
c00051d4:	42 00 50 c0 	add_i s2, s2, s0
c00051d8:	00 80 f0 c0 	move s0, s1
c00051dc:	20 00 f1 c0 	move s1, s2
c00051e0:	40 00 fc c0 	move s2, s24
c00051e4:	1a f6 ff f9 	call -10136 <memcpy>
c00051e8:	03 00 00 f6 	b 12 <read_block+0x54>
c00051ec:	ff 01 00 f8 	call 2044 <read_sdmmc_device>
c00051f0:	00 03 f0 c0 	move s24, s0
c00051f4:	00 00 fc c0 	move s0, s24
c00051f8:	fe e3 00 a8 	load_32 ra, 56(sp)
c00051fc:	1e f3 00 a8 	load_32 s24, 60(sp)
c0005200:	de 03 01 05 	add_i sp, sp, 64
c0005204:	1f 00 00 f0 	ret

open_file:
c0005208:	de 03 f6 05 	add_i sp, sp, -640
c000520c:	1e f3 09 88 	store_32 s24, 636(sp)
c0005210:	3e e3 09 88 	store_32 s25, 632(sp)
c0005214:	5e d3 09 88 	store_32 s26, 628(sp)
c0005218:	7e c3 09 88 	store_32 s27, 624(sp)
c000521c:	9e b3 09 88 	store_32 s28, 620(sp)
c0005220:	fe a3 09 88 	store_32 ra, 616(sp)
c0005224:	24 00 c0 4f 	movehi s1, 393220
c0005228:	01 e3 48 00 	or s24, s1, 4664
c000522c:	38 00 00 a0 	load_u8 s1, (s24)
c0005230:	1e 90 01 88 	store_32 s0, 100(sp)
c0005234:	81 0f 00 f4 	bnz s1, 496 <open_file+0x21C>
c0005238:	19 01 00 f8 	call 1124 <init_sdmmc_device>
c000523c:	00 fc ff 12 	cmpgt_i s0, s0, -1
c0005240:	40 00 00 f4 	bnz s0, 8 <open_file+0x40>
c0005244:	0a 00 00 f6 	b 40 <open_file+0x64>
c0005248:	04 00 c0 4f 	movehi s0, 393220
c000524c:	00 c0 48 00 	or s0, s0, 4656
c0005250:	00 00 00 a0 	load_u8 s0, (s0)
c0005254:	00 04 00 11 	cmpne_i s0, s0, 1
c0005258:	20 04 00 f4 	bnz s0, 132 <open_file+0xD4>
c000525c:	04 00 c0 4f 	movehi s0, 393220
c0005260:	00 d0 48 00 	or s0, s0, 4660
c0005264:	20 00 00 a8 	load_32 s1, (s0)
c0005268:	19 00 00 f6 	b 100 <open_file+0xC4>
c000526c:	00 00 c0 4f 	movehi s0, 393216
c0005270:	00 ec 1a 00 	or s0, s0, 1723
c0005274:	1e 00 00 88 	store_32 s0, (sp)
c0005278:	fc f3 ff f9 	call -12304 <kprintf>
c000527c:	cd 07 00 f8 	call 7988 <get_kernel_address_space>
c0005280:	20 00 c0 4f 	movehi s1, 393216
c0005284:	20 07 00 0f 	move s25, 1
c0005288:	40 80 00 4f 	movehi s2, 1024
c000528c:	81 74 1b 00 	or s4, s1, 1757
c0005290:	20 00 00 0f 	move s1, 0
c0005294:	60 08 00 0f 	move s3, 2
c0005298:	c0 00 04 4f 	movehi s6, 8192
c000529c:	a0 80 fc c0 	move s5, s25
c00052a0:	a9 09 00 f8 	call 9892 <map_contiguous_memory>
c00052a4:	24 00 c0 4f 	movehi s1, 393220
c00052a8:	44 00 c0 4f 	movehi s2, 393220
c00052ac:	64 00 c0 4f 	movehi s3, 393220
c00052b0:	21 00 49 00 	or s1, s1, 4672
c00052b4:	42 d0 48 00 	or s2, s2, 4660
c00052b8:	63 c0 48 00 	or s3, s3, 4656
c00052bc:	01 00 00 88 	store_32 s0, (s1)
c00052c0:	20 20 00 a8 	load_32 s1, 8(s0)
c00052c4:	22 00 00 88 	store_32 s1, (s2)
c00052c8:	23 03 00 82 	store_8 s25, (s3)
c00052cc:	1e a0 01 05 	add_i s0, sp, 104
c00052d0:	40 00 08 0f 	move s2, 512
c00052d4:	de f5 ff f9 	call -10376 <memcpy>
c00052d8:	07 00 00 f6 	b 28 <open_file+0xEC>
c00052dc:	00 00 00 0f 	move s0, 0
c00052e0:	3e a0 01 05 	add_i s1, sp, 104
c00052e4:	c1 01 00 f8 	call 1796 <read_sdmmc_device>
c00052e8:	00 00 00 12 	cmpgt_i s0, s0, 0
c00052ec:	40 00 00 f4 	bnz s0, 8 <open_file+0xEC>
c00052f0:	72 00 00 f6 	b 456 <open_file+0x2B0>
c00052f4:	1e a4 01 a0 	load_u8 s0, 105(sp)
c00052f8:	3e a0 01 a0 	load_u8 s1, 104(sp)
c00052fc:	5e ac 01 a0 	load_u8 s2, 107(sp)
c0005300:	7e a8 01 a0 	load_u8 s3, 106(sp)
c0005304:	00 20 00 0b 	shl s0, s0, 8
c0005308:	42 20 00 0b 	shl s2, s2, 8
c000530c:	00 80 00 c0 	or s0, s0, s1
c0005310:	33 64 73 4f 	movehi s1, 236339
c0005314:	42 80 01 c0 	or s2, s2, s3
c0005318:	21 cc 41 00 	or s1, s1, 4211
c000531c:	42 40 00 0b 	shl s2, s2, 16
c0005320:	02 00 00 c0 	or s0, s2, s0
c0005324:	00 80 00 c1 	cmpeq_i s0, s0, s1
c0005328:	c0 00 00 f4 	bnz s0, 24 <open_file+0x138>
c000532c:	00 00 c0 4f 	movehi s0, 393216
c0005330:	00 54 1c 00 	or s0, s0, 1813
c0005334:	1e 00 00 88 	store_32 s0, (sp)
c0005338:	cc f3 ff f9 	call -12496 <kprintf>
c000533c:	4c 00 00 f6 	b 304 <open_file+0x264>
c0005340:	1e 63 01 88 	store_32 s24, 88(sp)
c0005344:	1e b0 01 a8 	load_32 s0, 108(sp)
c0005348:	00 a0 00 07 	mull_i s0, s0, 40
c000534c:	20 1c 48 05 	add_i s1, s0, 4615
c0005350:	20 1f 08 05 	add_i s25, s0, 519
c0005354:	21 00 f8 01 	and s1, s1, -512
c0005358:	21 fc ff 05 	add_i s1, s1, -1
c000535c:	01 00 c0 01 	and s0, s1, -4096
c0005360:	11 f9 ff f9 	call -7100 <kmalloc>
c0005364:	24 00 c0 4f 	movehi s1, 393220
c0005368:	60 03 f0 c0 	move s27, s0
c000536c:	40 00 08 0f 	move s2, 512
c0005370:	21 f0 48 00 	or s1, s1, 4668
c0005374:	00 83 f0 c0 	move s24, s1
c0005378:	61 03 00 88 	store_32 s27, (s1)
c000537c:	3e a0 01 05 	add_i s1, sp, 104
c0005380:	b3 f5 ff f9 	call -10548 <memcpy>
c0005384:	19 00 10 18 	cmplt_u s0, s25, 1024
c0005388:	80 04 00 f4 	bnz s0, 144 <open_file+0x210>
c000538c:	04 00 c0 4f 	movehi s0, 393220
c0005390:	24 00 c0 4f 	movehi s1, 393220
c0005394:	59 27 00 0a 	shr s26, s25, 9
c0005398:	80 c3 48 00 	or s28, s0, 4656
c000539c:	20 07 00 0f 	move s25, 1
c00053a0:	01 d0 48 00 	or s0, s1, 4660
c00053a4:	1e 80 01 88 	store_32 s0, 96(sp)
c00053a8:	00 00 08 0f 	move s0, 512
c00053ac:	1e 70 01 88 	store_32 s0, 92(sp)
c00053b0:	02 00 00 f6 	b 8 <open_file+0x1B0>
c00053b4:	78 03 00 a8 	load_32 s27, (s24)
c00053b8:	3c 00 00 a0 	load_u8 s1, (s28)
c00053bc:	19 24 00 0b 	shl s0, s25, 9
c00053c0:	41 04 00 11 	cmpne_i s2, s1, 1
c00053c4:	3b 00 50 c0 	add_i s1, s27, s0
c00053c8:	82 01 00 f4 	bnz s2, 48 <open_file+0x1F0>
c00053cc:	5e 80 01 a8 	load_32 s2, 96(sp)
c00053d0:	42 00 00 a8 	load_32 s2, (s2)
c00053d4:	42 00 50 c0 	add_i s2, s2, s0
c00053d8:	00 80 f0 c0 	move s0, s1
c00053dc:	20 00 f1 c0 	move s1, s2
c00053e0:	5e 70 01 a8 	load_32 s2, 92(sp)
c00053e4:	9a f5 ff f9 	call -10648 <memcpy>
c00053e8:	39 07 00 05 	add_i s25, s25, 1
c00053ec:	19 00 7d c1 	cmpge_u s0, s25, s26
c00053f0:	40 01 00 f4 	bnz s0, 40 <open_file+0x210>
c00053f4:	f0 ff ff f7 	b -64 <open_file+0x1AC>
c00053f8:	00 80 fc c0 	move s0, s25
c00053fc:	7b 01 00 f8 	call 1516 <read_sdmmc_device>
c0005400:	00 04 00 14 	cmplt_i s0, s0, 1
c0005404:	40 03 00 f4 	bnz s0, 104 <open_file+0x264>
c0005408:	39 07 00 05 	add_i s25, s25, 1
c000540c:	19 00 7d c1 	cmpge_u s0, s25, s26
c0005410:	40 00 00 f4 	bnz s0, 8 <open_file+0x210>
c0005414:	e8 ff ff f7 	b -96 <open_file+0x1AC>
c0005418:	3e 60 01 a8 	load_32 s1, 88(sp)
c000541c:	00 04 00 0f 	move s0, 1
c0005420:	01 00 00 82 	store_8 s0, (s1)
c0005424:	04 00 c0 4f 	movehi s0, 393220
c0005428:	00 f0 48 00 	or s0, s0, 4668
c000542c:	40 03 00 a8 	load_32 s26, (s0)
c0005430:	7a 13 00 a8 	load_32 s27, 4(s26)
c0005434:	db 01 00 f2 	bz s27, 56 <open_file+0x264>
c0005438:	00 03 00 0f 	move s24, 0
c000543c:	20 03 fc c0 	move s25, s24
c0005440:	19 a0 00 07 	mull_i s0, s25, 40
c0005444:	3e 90 01 a8 	load_32 s1, 100(sp)
c0005448:	9a 03 50 c0 	add_i s28, s26, s0
c000544c:	1c 40 00 05 	add_i s0, s28, 16
c0005450:	68 f3 ff f9 	call -12896 <strcmp>
c0005454:	40 00 00 f4 	bnz s0, 8 <open_file+0x254>
c0005458:	07 00 00 f6 	b 28 <open_file+0x26C>
c000545c:	39 07 00 05 	add_i s25, s25, 1
c0005460:	19 80 8d c1 	cmplt_u s0, s25, s27
c0005464:	e0 fe ff f5 	bnz s0, -36 <open_file+0x238>
c0005468:	0b 00 00 f6 	b 44 <open_file+0x28C>
c000546c:	00 03 00 0f 	move s24, 0
c0005470:	09 00 00 f6 	b 36 <open_file+0x28C>
c0005474:	04 00 c0 4f 	movehi s0, 393220
c0005478:	00 e0 40 00 	or s0, s0, 4152
c000547c:	a7 f9 ff f9 	call -6500 <slab_alloc>
c0005480:	00 03 f0 c0 	move s24, s0
c0005484:	1c 20 00 a8 	load_32 s0, 8(s28)
c0005488:	18 00 00 88 	store_32 s0, (s24)
c000548c:	1c 30 00 a8 	load_32 s0, 12(s28)
c0005490:	18 10 00 88 	store_32 s0, 4(s24)
c0005494:	00 00 fc c0 	move s0, s24
c0005498:	fe a3 09 a8 	load_32 ra, 616(sp)
c000549c:	9e b3 09 a8 	load_32 s28, 620(sp)
c00054a0:	7e c3 09 a8 	load_32 s27, 624(sp)
c00054a4:	5e d3 09 a8 	load_32 s26, 628(sp)
c00054a8:	3e e3 09 a8 	load_32 s25, 632(sp)
c00054ac:	1e f3 09 a8 	load_32 s24, 636(sp)
c00054b0:	de 03 0a 05 	add_i sp, sp, 640
c00054b4:	1f 00 00 f0 	ret
c00054b8:	00 00 c0 4f 	movehi s0, 393216
c00054bc:	00 94 1b 00 	or s0, s0, 1765
c00054c0:	9d ff ff f7 	b -396 <open_file+0x12C>

read_file:
c00054c4:	de 03 f6 05 	add_i sp, sp, -640
c00054c8:	1e f3 09 88 	store_32 s24, 636(sp)
c00054cc:	3e e3 09 88 	store_32 s25, 632(sp)
c00054d0:	5e d3 09 88 	store_32 s26, 628(sp)
c00054d4:	7e c3 09 88 	store_32 s27, 624(sp)
c00054d8:	9e b3 09 88 	store_32 s28, 620(sp)
c00054dc:	fe a3 09 88 	store_32 ra, 616(sp)
c00054e0:	00 83 f1 c0 	move s24, s3
c00054e4:	60 00 00 a8 	load_32 s3, (s0)
c00054e8:	00 10 00 a8 	load_32 s0, 4(s0)
c00054ec:	5e 90 01 88 	store_32 s2, 100(sp)
c00054f0:	98 80 50 c0 	add_i s4, s24, s1
c00054f4:	84 00 60 c1 	cmpgt_u s4, s4, s0
c00054f8:	44 00 00 f4 	bnz s4, 8 <read_file+0x3C>
c00054fc:	02 00 00 f6 	b 8 <read_file+0x40>
c0005500:	00 83 60 c0 	sub_i s24, s0, s1
c0005504:	18 04 00 14 	cmplt_i s0, s24, 1
c0005508:	a0 0a 00 f4 	bnz s0, 340 <read_file+0x198>
c000550c:	03 80 50 c0 	add_i s0, s3, s1
c0005510:	40 03 00 0f 	move s26, 0
c0005514:	40 00 08 0f 	move s2, 512
c0005518:	20 7c 00 09 	ashr s1, s0, 31
c000551c:	20 ff 07 01 	and s25, s0, 511
c0005520:	21 5c 00 0a 	shr s1, s1, 23
c0005524:	20 80 50 c0 	add_i s1, s0, s1
c0005528:	04 00 c0 4f 	movehi s0, 393220
c000552c:	61 27 00 09 	ashr s27, s1, 9
c0005530:	24 00 c0 4f 	movehi s1, 393220
c0005534:	00 c0 48 00 	or s0, s0, 4656
c0005538:	1e 80 01 88 	store_32 s0, 96(sp)
c000553c:	01 d0 48 00 	or s0, s1, 4660
c0005540:	1e 40 01 88 	store_32 s0, 80(sp)
c0005544:	1e a0 01 05 	add_i s0, sp, 104
c0005548:	1e 70 01 88 	store_32 s0, 92(sp)
c000554c:	5e 63 01 88 	store_32 s26, 88(sp)
c0005550:	5e 50 01 88 	store_32 s2, 84(sp)
c0005554:	1e 33 01 88 	store_32 s24, 76(sp)
c0005558:	98 03 6d c0 	sub_i s28, s24, s26
c000555c:	39 02 00 f4 	bnz s25, 68 <read_file+0xDC>
c0005560:	1c 00 08 14 	cmplt_i s0, s28, 512
c0005564:	e0 01 00 f4 	bnz s0, 60 <read_file+0xDC>
c0005568:	1e 80 01 a8 	load_32 s0, 96(sp)
c000556c:	00 00 00 a0 	load_u8 s0, (s0)
c0005570:	3e 90 01 a8 	load_32 s1, 100(sp)
c0005574:	00 04 00 11 	cmpne_i s0, s0, 1
c0005578:	21 00 5d c0 	add_i s1, s1, s26
c000557c:	80 05 00 f4 	bnz s0, 176 <read_file+0x168>
c0005580:	1e 40 01 a8 	load_32 s0, 80(sp)
c0005584:	7b 24 00 0b 	shl s3, s27, 9
c0005588:	00 00 00 a8 	load_32 s0, (s0)
c000558c:	60 80 51 c0 	add_i s3, s0, s3
c0005590:	00 80 f0 c0 	move s0, s1
c0005594:	20 80 f1 c0 	move s1, s3
c0005598:	2d f5 ff f9 	call -11084 <memcpy>
c000559c:	29 00 00 f6 	b 164 <read_file+0x17C>
c00055a0:	1e 80 01 a8 	load_32 s0, 96(sp)
c00055a4:	00 00 00 a0 	load_u8 s0, (s0)
c00055a8:	00 04 00 11 	cmpne_i s0, s0, 1
c00055ac:	80 01 00 f4 	bnz s0, 48 <read_file+0x118>
c00055b0:	1e 40 01 a8 	load_32 s0, 80(sp)
c00055b4:	3b 24 00 0b 	shl s1, s27, 9
c00055b8:	00 00 00 a8 	load_32 s0, (s0)
c00055bc:	20 80 50 c0 	add_i s1, s0, s1
c00055c0:	1e 70 01 a8 	load_32 s0, 92(sp)
c00055c4:	00 03 f1 c0 	move s24, s2
c00055c8:	21 f5 ff f9 	call -11132 <memcpy>
c00055cc:	18 80 6c c0 	sub_i s0, s24, s25
c00055d0:	20 00 2e c1 	cmpgt_i s1, s0, s28
c00055d4:	a1 01 00 f4 	bnz s1, 52 <read_file+0x144>
c00055d8:	0b 00 00 f6 	b 44 <read_file+0x140>
c00055dc:	00 80 fd c0 	move s0, s27
c00055e0:	3e 70 01 a8 	load_32 s1, 92(sp)
c00055e4:	00 03 f1 c0 	move s24, s2
c00055e8:	00 01 00 f8 	call 1024 <read_sdmmc_device>
c00055ec:	00 fc ff 12 	cmpgt_i s0, s0, -1
c00055f0:	40 00 00 f4 	bnz s0, 8 <read_file+0x134>
c00055f4:	1c 00 00 f6 	b 112 <read_file+0x1A0>
c00055f8:	18 80 6c c0 	sub_i s0, s24, s25
c00055fc:	20 00 2e c1 	cmpgt_i s1, s0, s28
c0005600:	41 00 00 f4 	bnz s1, 8 <read_file+0x144>
c0005604:	80 03 f0 c0 	move s28, s0
c0005608:	1e 90 01 a8 	load_32 s0, 100(sp)
c000560c:	3e 70 01 a8 	load_32 s1, 92(sp)
c0005610:	40 00 fe c0 	move s2, s28
c0005614:	00 00 5d c0 	add_i s0, s0, s26
c0005618:	21 80 5c c0 	add_i s1, s1, s25
c000561c:	0c f5 ff f9 	call -11216 <memcpy>
c0005620:	1e 33 01 a8 	load_32 s24, 76(sp)
c0005624:	5c 03 5d c0 	add_i s26, s28, s26
c0005628:	07 00 00 f6 	b 28 <read_file+0x180>
c000562c:	00 80 fd c0 	move s0, s27
c0005630:	ee 00 00 f8 	call 952 <read_sdmmc_device>
c0005634:	00 fc ff 12 	cmpgt_i s0, s0, -1
c0005638:	40 00 00 f4 	bnz s0, 8 <read_file+0x17C>
c000563c:	0a 00 00 f6 	b 40 <read_file+0x1A0>
c0005640:	5a 03 08 05 	add_i s26, s26, 512
c0005644:	3e 63 01 a8 	load_32 s25, 88(sp)
c0005648:	18 00 2d c1 	cmpgt_i s0, s24, s26
c000564c:	5e 50 01 a8 	load_32 s2, 84(sp)
c0005650:	7b 07 00 05 	add_i s27, s27, 1
c0005654:	20 f8 ff f5 	bnz s0, -252 <read_file+0x94>
c0005658:	08 00 00 f6 	b 32 <read_file+0x1B4>
c000565c:	40 03 00 0f 	move s26, 0
c0005660:	06 00 00 f6 	b 24 <read_file+0x1B4>
c0005664:	00 00 c0 4f 	movehi s0, 393216
c0005668:	00 7c 1a 00 	or s0, s0, 1695
c000566c:	1e 00 00 88 	store_32 s0, (sp)
c0005670:	fe f2 ff f9 	call -13320 <kprintf>
c0005674:	40 ff ff 0f 	move s26, -1
c0005678:	00 00 fd c0 	move s0, s26
c000567c:	fe a3 09 a8 	load_32 ra, 616(sp)
c0005680:	9e b3 09 a8 	load_32 s28, 620(sp)
c0005684:	7e c3 09 a8 	load_32 s27, 624(sp)
c0005688:	5e d3 09 a8 	load_32 s26, 628(sp)
c000568c:	3e e3 09 a8 	load_32 s25, 632(sp)
c0005690:	1e f3 09 a8 	load_32 s24, 636(sp)
c0005694:	de 03 0a 05 	add_i sp, sp, 640
c0005698:	1f 00 00 f0 	ret

init_sdmmc_device:
c000569c:	b8 fc ff 4f 	movehi s5, 524280
c00056a0:	00 f0 01 0f 	move s0, 124
c00056a4:	60 04 00 0f 	move s3, 1
c00056a8:	25 40 03 00 	or s1, s5, 208
c00056ac:	45 00 03 00 	or s2, s5, 192
c00056b0:	85 20 03 00 	or s4, s5, 200
c00056b4:	01 00 00 88 	store_32 s0, (s1)
c00056b8:	05 30 03 00 	or s0, s5, 204
c00056bc:	60 00 00 88 	store_32 s3, (s0)
c00056c0:	60 fc 03 0f 	move s3, 255
c00056c4:	62 00 00 88 	store_32 s3, (s2)
c00056c8:	c4 00 00 a8 	load_32 s6, (s4)
c00056cc:	c6 04 00 01 	and s6, s6, 1
c00056d0:	c6 ff ff f3 	bz s6, -8 <init_sdmmc_device+0x2C>
c00056d4:	a5 10 03 00 	or s5, s5, 196
c00056d8:	c5 00 00 a8 	load_32 s6, (s5)
c00056dc:	62 00 00 88 	store_32 s3, (s2)
c00056e0:	c4 00 00 a8 	load_32 s6, (s4)
c00056e4:	c6 04 00 01 	and s6, s6, 1
c00056e8:	c6 ff ff f3 	bz s6, -8 <init_sdmmc_device+0x44>
c00056ec:	c5 00 00 a8 	load_32 s6, (s5)
c00056f0:	62 00 00 88 	store_32 s3, (s2)
c00056f4:	c4 00 00 a8 	load_32 s6, (s4)
c00056f8:	c6 04 00 01 	and s6, s6, 1
c00056fc:	c6 ff ff f3 	bz s6, -8 <init_sdmmc_device+0x58>
c0005700:	c5 00 00 a8 	load_32 s6, (s5)
c0005704:	62 00 00 88 	store_32 s3, (s2)
c0005708:	c4 00 00 a8 	load_32 s6, (s4)
c000570c:	c6 04 00 01 	and s6, s6, 1
c0005710:	c6 ff ff f3 	bz s6, -8 <init_sdmmc_device+0x6C>
c0005714:	c5 00 00 a8 	load_32 s6, (s5)
c0005718:	62 00 00 88 	store_32 s3, (s2)
c000571c:	c4 00 00 a8 	load_32 s6, (s4)
c0005720:	c6 04 00 01 	and s6, s6, 1
c0005724:	c6 ff ff f3 	bz s6, -8 <init_sdmmc_device+0x80>
c0005728:	c5 00 00 a8 	load_32 s6, (s5)
c000572c:	62 00 00 88 	store_32 s3, (s2)
c0005730:	c4 00 00 a8 	load_32 s6, (s4)
c0005734:	c6 04 00 01 	and s6, s6, 1
c0005738:	c6 ff ff f3 	bz s6, -8 <init_sdmmc_device+0x94>
c000573c:	c5 00 00 a8 	load_32 s6, (s5)
c0005740:	62 00 00 88 	store_32 s3, (s2)
c0005744:	c4 00 00 a8 	load_32 s6, (s4)
c0005748:	c6 04 00 01 	and s6, s6, 1
c000574c:	c6 ff ff f3 	bz s6, -8 <init_sdmmc_device+0xA8>
c0005750:	c5 00 00 a8 	load_32 s6, (s5)
c0005754:	62 00 00 88 	store_32 s3, (s2)
c0005758:	c4 00 00 a8 	load_32 s6, (s4)
c000575c:	c6 04 00 01 	and s6, s6, 1
c0005760:	c6 ff ff f3 	bz s6, -8 <init_sdmmc_device+0xBC>
c0005764:	c5 00 00 a8 	load_32 s6, (s5)
c0005768:	62 00 00 88 	store_32 s3, (s2)
c000576c:	c4 00 00 a8 	load_32 s6, (s4)
c0005770:	c6 04 00 01 	and s6, s6, 1
c0005774:	c6 ff ff f3 	bz s6, -8 <init_sdmmc_device+0xD0>
c0005778:	c5 00 00 a8 	load_32 s6, (s5)
c000577c:	62 00 00 88 	store_32 s3, (s2)
c0005780:	c4 00 00 a8 	load_32 s6, (s4)
c0005784:	c6 04 00 01 	and s6, s6, 1
c0005788:	c6 ff ff f3 	bz s6, -8 <init_sdmmc_device+0xE4>
c000578c:	e0 00 00 0f 	move s7, 0
c0005790:	c5 00 00 a8 	load_32 s6, (s5)
c0005794:	e0 00 00 88 	store_32 s7, (s0)
c0005798:	00 00 01 0f 	move s0, 64
c000579c:	02 00 00 88 	store_32 s0, (s2)
c00057a0:	04 00 00 a8 	load_32 s0, (s4)
c00057a4:	00 04 00 01 	and s0, s0, 1
c00057a8:	c0 ff ff f3 	bz s0, -8 <init_sdmmc_device+0x104>
c00057ac:	05 00 00 a8 	load_32 s0, (s5)
c00057b0:	e2 00 00 88 	store_32 s7, (s2)
c00057b4:	04 00 00 a8 	load_32 s0, (s4)
c00057b8:	00 04 00 01 	and s0, s0, 1
c00057bc:	c0 ff ff f3 	bz s0, -8 <init_sdmmc_device+0x118>
c00057c0:	05 00 00 a8 	load_32 s0, (s5)
c00057c4:	e2 00 00 88 	store_32 s7, (s2)
c00057c8:	04 00 00 a8 	load_32 s0, (s4)
c00057cc:	00 04 00 01 	and s0, s0, 1
c00057d0:	c0 ff ff f3 	bz s0, -8 <init_sdmmc_device+0x12C>
c00057d4:	05 00 00 a8 	load_32 s0, (s5)
c00057d8:	e2 00 00 88 	store_32 s7, (s2)
c00057dc:	04 00 00 a8 	load_32 s0, (s4)
c00057e0:	00 04 00 01 	and s0, s0, 1
c00057e4:	c0 ff ff f3 	bz s0, -8 <init_sdmmc_device+0x140>
c00057e8:	05 00 00 a8 	load_32 s0, (s5)
c00057ec:	e2 00 00 88 	store_32 s7, (s2)
c00057f0:	04 00 00 a8 	load_32 s0, (s4)
c00057f4:	00 04 00 01 	and s0, s0, 1
c00057f8:	c0 ff ff f3 	bz s0, -8 <init_sdmmc_device+0x154>
c00057fc:	c0 54 02 0f 	move s6, 149
c0005800:	05 00 00 a8 	load_32 s0, (s5)
c0005804:	c2 00 00 88 	store_32 s6, (s2)
c0005808:	04 00 00 a8 	load_32 s0, (s4)
c000580c:	00 04 00 01 	and s0, s0, 1
c0005810:	c0 ff ff f3 	bz s0, -8 <init_sdmmc_device+0x16C>
c0005814:	05 00 00 a8 	load_32 s0, (s5)
c0005818:	00 fc ff 0f 	move s0, -1
c000581c:	62 00 00 88 	store_32 s3, (s2)
c0005820:	04 01 00 a8 	load_32 s8, (s4)
c0005824:	08 05 00 01 	and s8, s8, 1
c0005828:	c8 ff ff f3 	bz s8, -8 <init_sdmmc_device+0x184>
c000582c:	05 01 00 a8 	load_32 s8, (s5)
c0005830:	28 fd 03 10 	cmpeq_i s9, s8, 255
c0005834:	49 00 00 f4 	bnz s9, 8 <init_sdmmc_device+0x1A0>
c0005838:	05 00 00 f6 	b 20 <init_sdmmc_device+0x1B0>
c000583c:	07 91 01 18 	cmplt_u s8, s7, 100
c0005840:	e7 04 00 05 	add_i s7, s7, 1
c0005844:	c8 fe ff f5 	bnz s8, -40 <init_sdmmc_device+0x180>
c0005848:	67 00 00 f6 	b 412 <init_sdmmc_device+0x348>
c000584c:	e8 04 00 11 	cmpne_i s7, s8, 1
c0005850:	a7 0c 00 f4 	bnz s7, 404 <init_sdmmc_device+0x348>
c0005854:	e0 04 01 0f 	move s7, 65
c0005858:	00 01 00 0f 	move s8, 0
c000585c:	e2 00 00 88 	store_32 s7, (s2)
c0005860:	24 01 00 a8 	load_32 s9, (s4)
c0005864:	29 05 00 01 	and s9, s9, 1
c0005868:	c9 ff ff f3 	bz s9, -8 <init_sdmmc_device+0x1C4>
c000586c:	25 01 00 a8 	load_32 s9, (s5)
c0005870:	02 01 00 88 	store_32 s8, (s2)
c0005874:	24 01 00 a8 	load_32 s9, (s4)
c0005878:	29 05 00 01 	and s9, s9, 1
c000587c:	c9 ff ff f3 	bz s9, -8 <init_sdmmc_device+0x1D8>
c0005880:	25 01 00 a8 	load_32 s9, (s5)
c0005884:	02 01 00 88 	store_32 s8, (s2)
c0005888:	24 01 00 a8 	load_32 s9, (s4)
c000588c:	29 05 00 01 	and s9, s9, 1
c0005890:	c9 ff ff f3 	bz s9, -8 <init_sdmmc_device+0x1EC>
c0005894:	25 01 00 a8 	load_32 s9, (s5)
c0005898:	02 01 00 88 	store_32 s8, (s2)
c000589c:	24 01 00 a8 	load_32 s9, (s4)
c00058a0:	29 05 00 01 	and s9, s9, 1
c00058a4:	c9 ff ff f3 	bz s9, -8 <init_sdmmc_device+0x200>
c00058a8:	25 01 00 a8 	load_32 s9, (s5)
c00058ac:	02 01 00 88 	store_32 s8, (s2)
c00058b0:	24 01 00 a8 	load_32 s9, (s4)
c00058b4:	29 05 00 01 	and s9, s9, 1
c00058b8:	c9 ff ff f3 	bz s9, -8 <init_sdmmc_device+0x214>
c00058bc:	25 01 00 a8 	load_32 s9, (s5)
c00058c0:	c2 00 00 88 	store_32 s6, (s2)
c00058c4:	24 01 00 a8 	load_32 s9, (s4)
c00058c8:	29 05 00 01 	and s9, s9, 1
c00058cc:	c9 ff ff f3 	bz s9, -8 <init_sdmmc_device+0x228>
c00058d0:	25 01 00 a8 	load_32 s9, (s5)
c00058d4:	20 01 f4 c0 	move s9, s8
c00058d8:	62 00 00 88 	store_32 s3, (s2)
c00058dc:	44 01 00 a8 	load_32 s10, (s4)
c00058e0:	4a 05 00 01 	and s10, s10, 1
c00058e4:	ca ff ff f3 	bz s10, -8 <init_sdmmc_device+0x240>
c00058e8:	45 01 00 a8 	load_32 s10, (s5)
c00058ec:	6a fd 03 10 	cmpeq_i s11, s10, 255
c00058f0:	4b 00 00 f4 	bnz s11, 8 <init_sdmmc_device+0x25C>
c00058f4:	05 00 00 f6 	b 20 <init_sdmmc_device+0x26C>
c00058f8:	49 91 01 18 	cmplt_u s10, s9, 100
c00058fc:	29 05 00 05 	add_i s9, s9, 1
c0005900:	ca fe ff f5 	bnz s10, -40 <init_sdmmc_device+0x23C>
c0005904:	38 00 00 f6 	b 224 <init_sdmmc_device+0x348>
c0005908:	8a 00 00 f2 	bz s10, 16 <init_sdmmc_device+0x27C>
c000590c:	2a 05 00 10 	cmpeq_i s9, s10, 1
c0005910:	69 fa ff f5 	bnz s9, -180 <init_sdmmc_device+0x1C0>
c0005914:	34 00 00 f6 	b 208 <init_sdmmc_device+0x348>
c0005918:	e0 58 01 0f 	move s7, 86
c000591c:	e2 00 00 88 	store_32 s7, (s2)
c0005920:	e4 00 00 a8 	load_32 s7, (s4)
c0005924:	e7 04 00 01 	and s7, s7, 1
c0005928:	c7 ff ff f3 	bz s7, -8 <init_sdmmc_device+0x284>
c000592c:	e5 00 00 a8 	load_32 s7, (s5)
c0005930:	e0 00 00 0f 	move s7, 0
c0005934:	e2 00 00 88 	store_32 s7, (s2)
c0005938:	04 01 00 a8 	load_32 s8, (s4)
c000593c:	08 05 00 01 	and s8, s8, 1
c0005940:	c8 ff ff f3 	bz s8, -8 <init_sdmmc_device+0x29C>
c0005944:	05 01 00 a8 	load_32 s8, (s5)
c0005948:	e2 00 00 88 	store_32 s7, (s2)
c000594c:	04 01 00 a8 	load_32 s8, (s4)
c0005950:	08 05 00 01 	and s8, s8, 1
c0005954:	c8 ff ff f3 	bz s8, -8 <init_sdmmc_device+0x2B0>
c0005958:	05 01 00 a8 	load_32 s8, (s5)
c000595c:	00 09 00 0f 	move s8, 2
c0005960:	02 01 00 88 	store_32 s8, (s2)
c0005964:	04 01 00 a8 	load_32 s8, (s4)
c0005968:	08 05 00 01 	and s8, s8, 1
c000596c:	c8 ff ff f3 	bz s8, -8 <init_sdmmc_device+0x2C8>
c0005970:	05 01 00 a8 	load_32 s8, (s5)
c0005974:	e2 00 00 88 	store_32 s7, (s2)
c0005978:	04 01 00 a8 	load_32 s8, (s4)
c000597c:	08 05 00 01 	and s8, s8, 1
c0005980:	c8 ff ff f3 	bz s8, -8 <init_sdmmc_device+0x2DC>
c0005984:	05 01 00 a8 	load_32 s8, (s5)
c0005988:	c2 00 00 88 	store_32 s6, (s2)
c000598c:	c4 00 00 a8 	load_32 s6, (s4)
c0005990:	c6 04 00 01 	and s6, s6, 1
c0005994:	c6 ff ff f3 	bz s6, -8 <init_sdmmc_device+0x2F0>
c0005998:	c5 00 00 a8 	load_32 s6, (s5)
c000599c:	62 00 00 88 	store_32 s3, (s2)
c00059a0:	c4 00 00 a8 	load_32 s6, (s4)
c00059a4:	c6 04 00 01 	and s6, s6, 1
c00059a8:	c6 ff ff f3 	bz s6, -8 <init_sdmmc_device+0x304>
c00059ac:	c5 00 00 a8 	load_32 s6, (s5)
c00059b0:	06 fd 03 10 	cmpeq_i s8, s6, 255
c00059b4:	48 00 00 f4 	bnz s8, 8 <init_sdmmc_device+0x320>
c00059b8:	05 00 00 f6 	b 20 <init_sdmmc_device+0x330>
c00059bc:	c7 90 01 18 	cmplt_u s6, s7, 100
c00059c0:	e7 04 00 05 	add_i s7, s7, 1
c00059c4:	c6 fe ff f5 	bnz s6, -40 <init_sdmmc_device+0x300>
c00059c8:	07 00 00 f6 	b 28 <init_sdmmc_device+0x348>
c00059cc:	46 00 00 f2 	bz s6, 8 <init_sdmmc_device+0x338>
c00059d0:	05 00 00 f6 	b 20 <init_sdmmc_device+0x348>
c00059d4:	00 10 00 0f 	move s0, 4
c00059d8:	01 00 00 88 	store_32 s0, (s1)
c00059dc:	00 00 00 0f 	move s0, 0
c00059e0:	1f 00 00 f0 	ret
c00059e4:	1f 00 00 f0 	ret

read_sdmmc_device:
c00059e8:	de 03 ff 05 	add_i sp, sp, -64
c00059ec:	1e f3 00 88 	store_32 s24, 60(sp)
c00059f0:	3e e3 00 88 	store_32 s25, 56(sp)
c00059f4:	fe d3 00 88 	store_32 ra, 52(sp)
c00059f8:	00 83 f0 c0 	move s24, s1
c00059fc:	20 03 f0 c0 	move s25, s0
c0005a00:	30 f6 ff f9 	call -10048 <disable_interrupts>
c0005a04:	24 00 c0 4f 	movehi s1, 393220
c0005a08:	c0 00 00 0f 	move s6, 0
c0005a0c:	41 10 49 00 	or s2, s1, 4676
c0005a10:	20 04 00 0f 	move s1, 1
c0005a14:	62 00 00 a8 	load_32 s3, (s2)
c0005a18:	e3 ff ff f5 	bnz s3, -4 <read_sdmmc_device+0x2C>
c0005a1c:	62 00 00 aa 	load_sync s3, (s2)
c0005a20:	83 00 13 c1 	cmpne_i s4, s3, s6
c0005a24:	84 00 00 f4 	bnz s4, 16 <read_sdmmc_device+0x4C>
c0005a28:	80 80 f0 c0 	move s4, s1
c0005a2c:	82 00 00 8a 	store_sync s4, (s2)  
c0005a30:	64 ff ff f3 	bz s4, -20 <read_sdmmc_device+0x34>
c0005a34:	63 00 00 10 	cmpeq_i s3, s3, 0
c0005a38:	63 04 00 01 	and s3, s3, 1
c0005a3c:	c3 fe ff f3 	bz s3, -40 <read_sdmmc_device+0x2C>
c0005a40:	38 fc ff 4f 	movehi s1, 524280
c0005a44:	60 5c 01 0f 	move s3, 87
c0005a48:	81 00 03 00 	or s4, s1, 192
c0005a4c:	64 00 00 88 	store_32 s3, (s4)
c0005a50:	61 20 03 00 	or s3, s1, 200
c0005a54:	a3 00 00 a8 	load_32 s5, (s3)
c0005a58:	a5 04 00 01 	and s5, s5, 1
c0005a5c:	c5 ff ff f3 	bz s5, -8 <read_sdmmc_device+0x6C>
c0005a60:	a1 10 03 00 	or s5, s1, 196
c0005a64:	25 00 00 a8 	load_32 s1, (s5)
c0005a68:	39 60 00 0a 	shr s1, s25, 24
c0005a6c:	24 00 00 88 	store_32 s1, (s4)
c0005a70:	23 00 00 a8 	load_32 s1, (s3)
c0005a74:	21 04 00 01 	and s1, s1, 1
c0005a78:	c1 ff ff f3 	bz s1, -8 <read_sdmmc_device+0x88>
c0005a7c:	39 40 00 0a 	shr s1, s25, 16
c0005a80:	e5 00 00 a8 	load_32 s7, (s5)
c0005a84:	21 fc 03 01 	and s1, s1, 255
c0005a88:	24 00 00 88 	store_32 s1, (s4)
c0005a8c:	23 00 00 a8 	load_32 s1, (s3)
c0005a90:	21 04 00 01 	and s1, s1, 1
c0005a94:	c1 ff ff f3 	bz s1, -8 <read_sdmmc_device+0xA4>
c0005a98:	39 20 00 0a 	shr s1, s25, 8
c0005a9c:	e5 00 00 a8 	load_32 s7, (s5)
c0005aa0:	21 fc 03 01 	and s1, s1, 255
c0005aa4:	24 00 00 88 	store_32 s1, (s4)
c0005aa8:	23 00 00 a8 	load_32 s1, (s3)
c0005aac:	21 04 00 01 	and s1, s1, 1
c0005ab0:	c1 ff ff f3 	bz s1, -8 <read_sdmmc_device+0xC0>
c0005ab4:	25 00 00 a8 	load_32 s1, (s5)
c0005ab8:	39 fc 03 01 	and s1, s25, 255
c0005abc:	24 00 00 88 	store_32 s1, (s4)
c0005ac0:	23 00 00 a8 	load_32 s1, (s3)
c0005ac4:	21 04 00 01 	and s1, s1, 1
c0005ac8:	c1 ff ff f3 	bz s1, -8 <read_sdmmc_device+0xD8>
c0005acc:	25 00 00 a8 	load_32 s1, (s5)
c0005ad0:	20 54 02 0f 	move s1, 149
c0005ad4:	24 00 00 88 	store_32 s1, (s4)
c0005ad8:	23 00 00 a8 	load_32 s1, (s3)
c0005adc:	21 04 00 01 	and s1, s1, 1
c0005ae0:	c1 ff ff f3 	bz s1, -8 <read_sdmmc_device+0xF0>
c0005ae4:	25 00 00 a8 	load_32 s1, (s5)
c0005ae8:	e0 fc 03 0f 	move s7, 255
c0005aec:	20 fc ff 0f 	move s1, -1
c0005af0:	e4 00 00 88 	store_32 s7, (s4)
c0005af4:	03 01 00 a8 	load_32 s8, (s3)
c0005af8:	08 05 00 01 	and s8, s8, 1
c0005afc:	c8 ff ff f3 	bz s8, -8 <read_sdmmc_device+0x10C>
c0005b00:	05 01 00 a8 	load_32 s8, (s5)
c0005b04:	28 fd 03 10 	cmpeq_i s9, s8, 255
c0005b08:	49 00 00 f4 	bnz s9, 8 <read_sdmmc_device+0x128>
c0005b0c:	05 00 00 f6 	b 20 <read_sdmmc_device+0x138>
c0005b10:	06 91 01 18 	cmplt_u s8, s6, 100
c0005b14:	c6 04 00 05 	add_i s6, s6, 1
c0005b18:	c8 fe ff f5 	bnz s8, -40 <read_sdmmc_device+0x108>
c0005b1c:	18 00 00 f6 	b 96 <read_sdmmc_device+0x194>
c0005b20:	e8 02 00 f4 	bnz s8, 92 <read_sdmmc_device+0x194>
c0005b24:	20 00 00 0f 	move s1, 0
c0005b28:	04 00 00 f6 	b 16 <read_sdmmc_device+0x150>
c0005b2c:	18 81 50 c0 	add_i s8, s24, s1
c0005b30:	21 04 00 05 	add_i s1, s1, 1
c0005b34:	c8 00 00 82 	store_8 s6, (s8)
c0005b38:	e4 00 00 88 	store_32 s7, (s4)
c0005b3c:	c3 00 00 a8 	load_32 s6, (s3)
c0005b40:	c6 04 00 01 	and s6, s6, 1
c0005b44:	c6 ff ff f3 	bz s6, -8 <read_sdmmc_device+0x154>
c0005b48:	c5 00 00 a8 	load_32 s6, (s5)
c0005b4c:	01 01 08 18 	cmplt_u s8, s1, 512
c0005b50:	e8 fe ff f5 	bnz s8, -36 <read_sdmmc_device+0x144>
c0005b54:	e4 00 00 88 	store_32 s7, (s4)
c0005b58:	23 00 00 a8 	load_32 s1, (s3)
c0005b5c:	21 04 00 01 	and s1, s1, 1
c0005b60:	c1 ff ff f3 	bz s1, -8 <read_sdmmc_device+0x170>
c0005b64:	25 00 00 a8 	load_32 s1, (s5)
c0005b68:	20 00 00 0f 	move s1, 0
c0005b6c:	22 00 00 88 	store_32 s1, (s2)
c0005b70:	00 00 00 e8 	membar
c0005b74:	db f5 ff f9 	call -10388 <restore_interrupts>
c0005b78:	20 00 08 0f 	move s1, 512
c0005b7c:	00 80 f0 c0 	move s0, s1
c0005b80:	fe d3 00 a8 	load_32 ra, 52(sp)
c0005b84:	3e e3 00 a8 	load_32 s25, 56(sp)
c0005b88:	1e f3 00 a8 	load_32 s24, 60(sp)
c0005b8c:	de 03 01 05 	add_i sp, sp, 64
c0005b90:	1f 00 00 f0 	ret

boot_vm_allocate_pages:
c0005b94:	de 03 ff 05 	add_i sp, sp, -64
c0005b98:	1e f3 00 88 	store_32 s24, 60(sp)
c0005b9c:	fe e3 00 88 	store_32 ra, 56(sp)
c0005ba0:	00 03 00 a8 	load_32 s24, (s0)
c0005ba4:	41 30 00 0b 	shl s2, s1, 12
c0005ba8:	38 00 51 c0 	add_i s1, s24, s2
c0005bac:	20 00 00 88 	store_32 s1, (s0)
c0005bb0:	20 00 00 0f 	move s1, 0
c0005bb4:	00 00 fc c0 	move s0, s24
c0005bb8:	8b f3 ff f9 	call -12756 <memset>
c0005bbc:	00 00 fc c0 	move s0, s24
c0005bc0:	fe e3 00 a8 	load_32 ra, 56(sp)
c0005bc4:	1e f3 00 a8 	load_32 s24, 60(sp)
c0005bc8:	de 03 01 05 	add_i sp, sp, 64
c0005bcc:	1f 00 00 f0 	ret

boot_vm_map_pages:
c0005bd0:	de 03 ff 05 	add_i sp, sp, -64
c0005bd4:	1e f3 00 88 	store_32 s24, 60(sp)
c0005bd8:	3e e3 00 88 	store_32 s25, 56(sp)
c0005bdc:	5e d3 00 88 	store_32 s26, 52(sp)
c0005be0:	7e c3 00 88 	store_32 s27, 48(sp)
c0005be4:	9e b3 00 88 	store_32 s28, 44(sp)
c0005be8:	fe a3 00 88 	store_32 ra, 40(sp)
c0005bec:	00 03 f2 c0 	move s24, s4
c0005bf0:	20 83 f1 c0 	move s25, s3
c0005bf4:	40 03 f1 c0 	move s26, s2
c0005bf8:	1e 90 00 88 	store_32 s0, 36(sp)
c0005bfc:	b9 05 00 f2 	bz s25, 180 <boot_vm_map_pages+0xE0>
c0005c00:	01 30 00 0a 	shr s0, s1, 12
c0005c04:	81 5b 00 0a 	shr s28, s1, 22
c0005c08:	20 00 00 0f 	move s1, 0
c0005c0c:	60 ff 0f 01 	and s27, s0, 1023
c0005c10:	1e 90 00 a8 	load_32 s0, 36(sp)
c0005c14:	40 00 40 0f 	move s2, 4096
c0005c18:	00 10 00 a8 	load_32 s0, 4(s0)
c0005c1c:	5e 50 00 88 	store_32 s2, 20(sp)
c0005c20:	3e 60 00 88 	store_32 s1, 24(sp)
c0005c24:	9c 08 00 0b 	shl s4, s28, 2
c0005c28:	40 00 52 c0 	add_i s2, s0, s4
c0005c2c:	62 00 00 a8 	load_32 s3, (s2)
c0005c30:	23 02 00 f4 	bnz s3, 68 <boot_vm_map_pages+0xA4>
c0005c34:	7e 90 00 a8 	load_32 s3, 36(sp)
c0005c38:	03 00 00 a8 	load_32 s0, (s3)
c0005c3c:	1e 80 00 88 	store_32 s0, 32(sp)
c0005c40:	40 00 40 05 	add_i s2, s0, 4096
c0005c44:	43 00 00 88 	store_32 s2, (s3)
c0005c48:	5e 50 00 a8 	load_32 s2, 20(sp)
c0005c4c:	9e 70 00 88 	store_32 s4, 28(sp)
c0005c50:	65 f3 ff f9 	call -12908 <memset>
c0005c54:	3e 60 00 a8 	load_32 s1, 24(sp)
c0005c58:	1e 90 00 a8 	load_32 s0, 36(sp)
c0005c5c:	00 10 00 a8 	load_32 s0, 4(s0)
c0005c60:	5e 70 00 a8 	load_32 s2, 28(sp)
c0005c64:	7e 80 00 a8 	load_32 s3, 32(sp)
c0005c68:	40 00 51 c0 	add_i s2, s0, s2
c0005c6c:	63 04 00 00 	or s3, s3, 1
c0005c70:	62 00 00 88 	store_32 s3, (s2)
c0005c74:	f9 01 00 f2 	bz s25, 60 <boot_vm_map_pages+0xE0>
c0005c78:	83 00 c0 01 	and s4, s3, -4096
c0005c7c:	5b 08 00 0b 	shl s2, s27, 2
c0005c80:	7a 00 0c c0 	or s3, s26, s24
c0005c84:	44 00 51 c0 	add_i s2, s4, s2
c0005c88:	39 03 c0 05 	add_i s25, s25, -4096
c0005c8c:	5a 03 40 05 	add_i s26, s26, 4096
c0005c90:	62 00 00 88 	store_32 s3, (s2)
c0005c94:	99 00 00 f2 	bz s25, 16 <boot_vm_map_pages+0xD4>
c0005c98:	5b fc 0f 18 	cmplt_u s2, s27, 1023
c0005c9c:	7b 07 00 05 	add_i s27, s27, 1
c0005ca0:	e2 fe ff f5 	bnz s2, -36 <boot_vm_map_pages+0xAC>
c0005ca4:	9c 07 00 05 	add_i s28, s28, 1
c0005ca8:	60 83 f0 c0 	move s27, s1
c0005cac:	d9 fb ff f5 	bnz s25, -136 <boot_vm_map_pages+0x54>
c0005cb0:	fe a3 00 a8 	load_32 ra, 40(sp)
c0005cb4:	9e b3 00 a8 	load_32 s28, 44(sp)
c0005cb8:	7e c3 00 a8 	load_32 s27, 48(sp)
c0005cbc:	5e d3 00 a8 	load_32 s26, 52(sp)
c0005cc0:	3e e3 00 a8 	load_32 s25, 56(sp)
c0005cc4:	1e f3 00 a8 	load_32 s24, 60(sp)
c0005cc8:	de 03 01 05 	add_i sp, sp, 64
c0005ccc:	1f 00 00 f0 	ret

boot_setup_page_tables:
c0005cd0:	de 03 ff 05 	add_i sp, sp, -64
c0005cd4:	1e f3 00 88 	store_32 s24, 60(sp)
c0005cd8:	3e e3 00 88 	store_32 s25, 56(sp)
c0005cdc:	5e d3 00 88 	store_32 s26, 52(sp)
c0005ce0:	7e c3 00 88 	store_32 s27, 48(sp)
c0005ce4:	9e b3 00 88 	store_32 s28, 44(sp)
c0005ce8:	fe a3 00 88 	store_32 ra, 40(sp)
c0005cec:	24 00 c0 4f 	movehi s1, 393220
c0005cf0:	1e 30 00 88 	store_32 s0, 12(sp)
c0005cf4:	40 03 40 4f 	movehi s26, 131072
c0005cf8:	60 03 00 0f 	move s27, 0
c0005cfc:	21 80 55 00 	or s1, s1, 5472
c0005d00:	40 00 40 0f 	move s2, 4096
c0005d04:	21 fc 3f 05 	add_i s1, s1, 4095
c0005d08:	01 03 c0 01 	and s24, s1, -4096
c0005d0c:	38 03 5d c0 	add_i s25, s24, s26
c0005d10:	00 80 fc c0 	move s0, s25
c0005d14:	20 80 fd c0 	move s1, s27
c0005d18:	33 f3 ff f9 	call -13108 <memset>
c0005d1c:	a0 00 fd c0 	move s5, s26
c0005d20:	1e 93 00 88 	store_32 s24, 36(sp)
c0005d24:	be 80 00 88 	store_32 s5, 32(sp)
c0005d28:	05 00 40 00 	or s0, s5, 4096
c0005d2c:	58 03 50 c0 	add_i s26, s24, s0
c0005d30:	59 00 00 f2 	bz s25, 8 <boot_setup_page_tables+0x68>
c0005d34:	05 00 00 f6 	b 20 <boot_setup_page_tables+0x78>
c0005d38:	80 00 fc c0 	move s4, s24
c0005d3c:	3e 33 00 a8 	load_32 s25, 12(sp)
c0005d40:	d9 09 00 f2 	bz s25, 312 <boot_setup_page_tables+0x1A8>
c0005d44:	29 00 00 f6 	b 164 <boot_setup_page_tables+0x118>
c0005d48:	00 00 40 0f 	move s0, 4096
c0005d4c:	1e 50 00 88 	store_32 s0, 20(sp)
c0005d50:	00 80 fd c0 	move s0, s27
c0005d54:	80 00 fc c0 	move s4, s24
c0005d58:	80 03 0c 0f 	move s28, 768
c0005d5c:	20 00 f0 c0 	move s1, s0
c0005d60:	3e 70 00 88 	store_32 s1, 28(sp)
c0005d64:	1c 08 00 0b 	shl s0, s28, 2
c0005d68:	04 00 50 c0 	add_i s0, s4, s0
c0005d6c:	00 83 52 c0 	add_i s24, s0, s5
c0005d70:	18 00 00 a8 	load_32 s0, (s24)
c0005d74:	60 01 00 f4 	bnz s0, 44 <boot_setup_page_tables+0xD0>
c0005d78:	1a 00 40 05 	add_i s0, s26, 4096
c0005d7c:	1e 60 00 88 	store_32 s0, 24(sp)
c0005d80:	00 00 fd c0 	move s0, s26
c0005d84:	5e 50 00 a8 	load_32 s2, 20(sp)
c0005d88:	17 f3 ff f9 	call -13220 <memset>
c0005d8c:	be 80 00 a8 	load_32 s5, 32(sp)
c0005d90:	1a 04 00 00 	or s0, s26, 1
c0005d94:	9e 90 00 a8 	load_32 s4, 36(sp)
c0005d98:	18 00 00 88 	store_32 s0, (s24)
c0005d9c:	5e 63 00 a8 	load_32 s26, 24(sp)
c0005da0:	19 02 00 f2 	bz s25, 64 <boot_setup_page_tables+0x110>
c0005da4:	3e 70 00 a8 	load_32 s1, 28(sp)
c0005da8:	00 00 c0 01 	and s0, s0, -4096
c0005dac:	c0 80 f0 c0 	move s6, s1
c0005db0:	46 08 00 0b 	shl s2, s6, 2
c0005db4:	40 00 51 c0 	add_i s2, s0, s2
c0005db8:	7b 7c 00 00 	or s3, s27, 31
c0005dbc:	39 03 c0 05 	add_i s25, s25, -4096
c0005dc0:	62 00 00 88 	store_32 s3, (s2)
c0005dc4:	46 f8 0f 16 	cmpgt_u s2, s6, 1022
c0005dc8:	7b 03 40 05 	add_i s27, s27, 4096
c0005dcc:	62 00 00 f4 	bnz s2, 12 <boot_setup_page_tables+0x108>
c0005dd0:	c6 04 00 05 	add_i s6, s6, 1
c0005dd4:	f9 fe ff f5 	bnz s25, -36 <boot_setup_page_tables+0xE0>
c0005dd8:	9c 07 00 05 	add_i s28, s28, 1
c0005ddc:	59 fc ff f5 	bnz s25, -120 <boot_setup_page_tables+0x94>
c0005de0:	3e 33 00 a8 	load_32 s25, 12(sp)
c0005de4:	b9 04 00 f2 	bz s25, 148 <boot_setup_page_tables+0x1A8>
c0005de8:	60 13 0c 0f 	move s27, 772
c0005dec:	80 03 00 0f 	move s28, 0
c0005df0:	20 00 40 0f 	move s1, 4096
c0005df4:	3e 50 00 88 	store_32 s1, 20(sp)
c0005df8:	9e 73 00 88 	store_32 s28, 28(sp)
c0005dfc:	1b 08 00 0b 	shl s0, s27, 2
c0005e00:	04 00 50 c0 	add_i s0, s4, s0
c0005e04:	00 83 52 c0 	add_i s24, s0, s5
c0005e08:	18 00 00 a8 	load_32 s0, (s24)
c0005e0c:	80 01 00 f4 	bnz s0, 48 <boot_setup_page_tables+0x16C>
c0005e10:	1a 00 40 05 	add_i s0, s26, 4096
c0005e14:	1e 60 00 88 	store_32 s0, 24(sp)
c0005e18:	00 00 fd c0 	move s0, s26
c0005e1c:	3e 70 00 a8 	load_32 s1, 28(sp)
c0005e20:	5e 50 00 a8 	load_32 s2, 20(sp)
c0005e24:	f0 f2 ff f9 	call -13376 <memset>
c0005e28:	be 80 00 a8 	load_32 s5, 32(sp)
c0005e2c:	1a 04 00 00 	or s0, s26, 1
c0005e30:	9e 90 00 a8 	load_32 s4, 36(sp)
c0005e34:	18 00 00 88 	store_32 s0, (s24)
c0005e38:	5e 63 00 a8 	load_32 s26, 24(sp)
c0005e3c:	f9 01 00 f2 	bz s25, 60 <boot_setup_page_tables+0x1A8>
c0005e40:	3e 70 00 a8 	load_32 s1, 28(sp)
c0005e44:	00 00 c0 01 	and s0, s0, -4096
c0005e48:	41 08 00 0b 	shl s2, s1, 2
c0005e4c:	40 00 51 c0 	add_i s2, s0, s2
c0005e50:	7c 6c 00 00 	or s3, s28, 27
c0005e54:	39 03 c0 05 	add_i s25, s25, -4096
c0005e58:	62 00 00 88 	store_32 s3, (s2)
c0005e5c:	41 f8 0f 16 	cmpgt_u s2, s1, 1022
c0005e60:	9c 03 40 05 	add_i s28, s28, 4096
c0005e64:	62 00 00 f4 	bnz s2, 12 <boot_setup_page_tables+0x1A0>
c0005e68:	21 04 00 05 	add_i s1, s1, 1
c0005e6c:	f9 fe ff f5 	bnz s25, -36 <boot_setup_page_tables+0x178>
c0005e70:	7b 07 00 05 	add_i s27, s27, 1
c0005e74:	59 fc ff f5 	bnz s25, -120 <boot_setup_page_tables+0x12C>
c0005e78:	68 03 00 4f 	movehi s27, 8
c0005e7c:	00 03 00 0f 	move s24, 0
c0005e80:	00 00 fd c0 	move s0, s26
c0005e84:	3a 83 5d c0 	add_i s25, s26, s27
c0005e88:	20 00 fc c0 	move s1, s24
c0005e8c:	40 80 fd c0 	move s2, s27
c0005e90:	d5 f2 ff f9 	call -13484 <memset>
c0005e94:	20 00 fc c0 	move s1, s24
c0005e98:	9e 80 00 a8 	load_32 s4, 32(sp)
c0005e9c:	7e 90 00 a8 	load_32 s3, 36(sp)
c0005ea0:	00 ff 0f 0f 	move s24, 1023
c0005ea4:	80 83 0f 0f 	move s28, 992
c0005ea8:	00 00 40 0f 	move s0, 4096
c0005eac:	1e 40 00 88 	store_32 s0, 16(sp)
c0005eb0:	3e 50 00 88 	store_32 s1, 20(sp)
c0005eb4:	18 08 00 0b 	shl s0, s24, 2
c0005eb8:	03 00 50 c0 	add_i s0, s3, s0
c0005ebc:	40 00 52 c0 	add_i s2, s0, s4
c0005ec0:	02 00 00 a8 	load_32 s0, (s2)
c0005ec4:	c0 01 00 f4 	bnz s0, 56 <boot_setup_page_tables+0x22C>
c0005ec8:	19 00 40 05 	add_i s0, s25, 4096
c0005ecc:	1e 70 00 88 	store_32 s0, 28(sp)
c0005ed0:	00 80 fc c0 	move s0, s25
c0005ed4:	5e 60 00 88 	store_32 s2, 24(sp)
c0005ed8:	5e 40 00 a8 	load_32 s2, 16(sp)
c0005edc:	c2 f2 ff f9 	call -13560 <memset>
c0005ee0:	3e 50 00 a8 	load_32 s1, 20(sp)
c0005ee4:	19 04 00 00 	or s0, s25, 1
c0005ee8:	9e 80 00 a8 	load_32 s4, 32(sp)
c0005eec:	7e 90 00 a8 	load_32 s3, 36(sp)
c0005ef0:	5e 60 00 a8 	load_32 s2, 24(sp)
c0005ef4:	02 00 00 88 	store_32 s0, (s2)
c0005ef8:	3e 73 00 a8 	load_32 s25, 28(sp)
c0005efc:	fb 01 00 f2 	bz s27, 60 <boot_setup_page_tables+0x268>
c0005f00:	00 00 c0 01 	and s0, s0, -4096
c0005f04:	5c 08 00 0b 	shl s2, s28, 2
c0005f08:	a0 00 51 c0 	add_i s5, s0, s2
c0005f0c:	5a 6c 00 00 	or s2, s26, 27
c0005f10:	7b 03 c0 05 	add_i s27, s27, -4096
c0005f14:	45 00 00 88 	store_32 s2, (s5)
c0005f18:	5c f8 0f 16 	cmpgt_u s2, s28, 1022
c0005f1c:	5a 03 40 05 	add_i s26, s26, 4096
c0005f20:	62 00 00 f4 	bnz s2, 12 <boot_setup_page_tables+0x25C>
c0005f24:	9c 07 00 05 	add_i s28, s28, 1
c0005f28:	fb fe ff f5 	bnz s27, -36 <boot_setup_page_tables+0x234>
c0005f2c:	18 07 00 05 	add_i s24, s24, 1
c0005f30:	80 83 f0 c0 	move s28, s1
c0005f34:	1b fc ff f5 	bnz s27, -128 <boot_setup_page_tables+0x1E4>
c0005f38:	68 03 00 4f 	movehi s27, 8
c0005f3c:	80 ff 0f 0f 	move s28, 1023
c0005f40:	40 c3 0f 0f 	move s26, 1008
c0005f44:	18 ff ff 4f 	movehi s24, 524280
c0005f48:	20 00 00 0f 	move s1, 0
c0005f4c:	00 00 40 0f 	move s0, 4096
c0005f50:	1e 40 00 88 	store_32 s0, 16(sp)
c0005f54:	3e 50 00 88 	store_32 s1, 20(sp)
c0005f58:	1c 08 00 0b 	shl s0, s28, 2
c0005f5c:	03 00 50 c0 	add_i s0, s3, s0
c0005f60:	40 00 52 c0 	add_i s2, s0, s4
c0005f64:	02 00 00 a8 	load_32 s0, (s2)
c0005f68:	c0 01 00 f4 	bnz s0, 56 <boot_setup_page_tables+0x2D0>
c0005f6c:	19 00 40 05 	add_i s0, s25, 4096
c0005f70:	1e 70 00 88 	store_32 s0, 28(sp)
c0005f74:	00 80 fc c0 	move s0, s25
c0005f78:	5e 60 00 88 	store_32 s2, 24(sp)
c0005f7c:	5e 40 00 a8 	load_32 s2, 16(sp)
c0005f80:	99 f2 ff f9 	call -13724 <memset>
c0005f84:	3e 50 00 a8 	load_32 s1, 20(sp)
c0005f88:	19 04 00 00 	or s0, s25, 1
c0005f8c:	9e 80 00 a8 	load_32 s4, 32(sp)
c0005f90:	7e 90 00 a8 	load_32 s3, 36(sp)
c0005f94:	5e 60 00 a8 	load_32 s2, 24(sp)
c0005f98:	02 00 00 88 	store_32 s0, (s2)
c0005f9c:	3e 73 00 a8 	load_32 s25, 28(sp)
c0005fa0:	fb 01 00 f2 	bz s27, 60 <boot_setup_page_tables+0x30C>
c0005fa4:	00 00 c0 01 	and s0, s0, -4096
c0005fa8:	5a 08 00 0b 	shl s2, s26, 2
c0005fac:	a0 00 51 c0 	add_i s5, s0, s2
c0005fb0:	58 6c 00 00 	or s2, s24, 27
c0005fb4:	7b 03 c0 05 	add_i s27, s27, -4096
c0005fb8:	45 00 00 88 	store_32 s2, (s5)
c0005fbc:	5a f8 0f 16 	cmpgt_u s2, s26, 1022
c0005fc0:	18 03 40 05 	add_i s24, s24, 4096
c0005fc4:	62 00 00 f4 	bnz s2, 12 <boot_setup_page_tables+0x300>
c0005fc8:	5a 07 00 05 	add_i s26, s26, 1
c0005fcc:	fb fe ff f5 	bnz s27, -36 <boot_setup_page_tables+0x2D8>
c0005fd0:	9c 07 00 05 	add_i s28, s28, 1
c0005fd4:	40 83 f0 c0 	move s26, s1
c0005fd8:	1b fc ff f5 	bnz s27, -128 <boot_setup_page_tables+0x288>
c0005fdc:	1e 30 00 a8 	load_32 s0, 12(sp)
c0005fe0:	20 00 00 0f 	move s1, 0
c0005fe4:	00 33 00 0a 	shr s24, s0, 12
c0005fe8:	1f fc 03 4f 	movehi s0, 8191
c0005fec:	98 93 00 07 	mull_i s28, s24, 36
c0005ff0:	00 00 40 00 	or s0, s0, 4096
c0005ff4:	5c 00 10 c0 	and s2, s28, s0
c0005ff8:	00 80 fc c0 	move s0, s25
c0005ffc:	3e 70 00 88 	store_32 s1, 28(sp)
c0006000:	59 03 51 c0 	add_i s26, s25, s2
c0006004:	78 f2 ff f9 	call -13856 <memset>
c0006008:	d8 04 00 f2 	bz s24, 152 <boot_setup_page_tables+0x3D0>
c000600c:	00 00 40 0f 	move s0, 4096
c0006010:	1e 50 00 88 	store_32 s0, 20(sp)
c0006014:	9e 90 00 a8 	load_32 s4, 36(sp)
c0006018:	60 03 0d 0f 	move s27, 832
c000601c:	be 80 00 a8 	load_32 s5, 32(sp)
c0006020:	1b 08 00 0b 	shl s0, s27, 2
c0006024:	04 00 50 c0 	add_i s0, s4, s0
c0006028:	00 83 52 c0 	add_i s24, s0, s5
c000602c:	18 00 00 a8 	load_32 s0, (s24)
c0006030:	80 01 00 f4 	bnz s0, 48 <boot_setup_page_tables+0x390>
c0006034:	1a 00 40 05 	add_i s0, s26, 4096
c0006038:	1e 60 00 88 	store_32 s0, 24(sp)
c000603c:	00 00 fd c0 	move s0, s26
c0006040:	3e 70 00 a8 	load_32 s1, 28(sp)
c0006044:	5e 50 00 a8 	load_32 s2, 20(sp)
c0006048:	67 f2 ff f9 	call -13924 <memset>
c000604c:	be 80 00 a8 	load_32 s5, 32(sp)
c0006050:	1a 04 00 00 	or s0, s26, 1
c0006054:	9e 90 00 a8 	load_32 s4, 36(sp)
c0006058:	18 00 00 88 	store_32 s0, (s24)
c000605c:	5e 63 00 a8 	load_32 s26, 24(sp)
c0006060:	5c 02 00 f2 	bz s28, 72 <boot_setup_page_tables+0x3D8>
c0006064:	3e 70 00 a8 	load_32 s1, 28(sp)
c0006068:	00 00 c0 01 	and s0, s0, -4096
c000606c:	41 08 00 0b 	shl s2, s1, 2
c0006070:	40 00 51 c0 	add_i s2, s0, s2
c0006074:	79 6c 00 00 	or s3, s25, 27
c0006078:	9c 03 c0 05 	add_i s28, s28, -4096
c000607c:	62 00 00 88 	store_32 s3, (s2)
c0006080:	41 f8 0f 16 	cmpgt_u s2, s1, 1022
c0006084:	39 03 40 05 	add_i s25, s25, 4096
c0006088:	62 00 00 f4 	bnz s2, 12 <boot_setup_page_tables+0x3C4>
c000608c:	21 04 00 05 	add_i s1, s1, 1
c0006090:	fc fe ff f5 	bnz s28, -36 <boot_setup_page_tables+0x39C>
c0006094:	7b 07 00 05 	add_i s27, s27, 1
c0006098:	5c fc ff f5 	bnz s28, -120 <boot_setup_page_tables+0x350>
c000609c:	03 00 00 f6 	b 12 <boot_setup_page_tables+0x3D8>
c00060a0:	9e 90 00 a8 	load_32 s4, 36(sp)
c00060a4:	be 80 00 a8 	load_32 s5, 32(sp)
c00060a8:	04 00 c0 4f 	movehi s0, 393220
c00060ac:	44 00 c0 4f 	movehi s2, 393220
c00060b0:	3f fc 00 4f 	movehi s1, 2047
c00060b4:	00 00 40 00 	or s0, s0, 4096
c00060b8:	42 10 40 00 	or s2, s2, 4100
c00060bc:	21 fc 7f 00 	or s1, s1, 8191
c00060c0:	00 80 10 c0 	and s0, s0, s1
c00060c4:	22 80 10 c0 	and s1, s2, s1
c00060c8:	64 80 52 c0 	add_i s3, s4, s5
c00060cc:	60 00 00 88 	store_32 s3, (s0)
c00060d0:	1a 30 00 0a 	shr s0, s26, 12
c00060d4:	01 00 00 88 	store_32 s0, (s1)
c00060d8:	fe a3 00 a8 	load_32 ra, 40(sp)
c00060dc:	9e b3 00 a8 	load_32 s28, 44(sp)
c00060e0:	7e c3 00 a8 	load_32 s27, 48(sp)
c00060e4:	5e d3 00 a8 	load_32 s26, 52(sp)
c00060e8:	3e e3 00 a8 	load_32 s25, 56(sp)
c00060ec:	1e f3 00 a8 	load_32 s24, 60(sp)
c00060f0:	de 03 01 05 	add_i sp, sp, 64
c00060f4:	1f 00 00 f0 	ret

vm_translation_map_init:
c00060f8:	04 00 c0 4f 	movehi s0, 393220
c00060fc:	20 20 49 00 	or s1, s0, 4680
c0006100:	04 00 c0 4f 	movehi s0, 393220
c0006104:	21 10 00 88 	store_32 s1, 4(s1)
c0006108:	00 40 49 00 	or s0, s0, 4688
c000610c:	21 00 00 88 	store_32 s1, (s1)
c0006110:	2a 00 00 ac 	getcr s1, 10
c0006114:	20 30 00 88 	store_32 s1, 12(s0)
c0006118:	1f 00 00 f0 	ret

create_translation_map:
c000611c:	de 03 ff 05 	add_i sp, sp, -64
c0006120:	1e f3 00 88 	store_32 s24, 60(sp)
c0006124:	3e e3 00 88 	store_32 s25, 56(sp)
c0006128:	5e d3 00 88 	store_32 s26, 52(sp)
c000612c:	7e c3 00 88 	store_32 s27, 48(sp)
c0006130:	fe b3 00 88 	store_32 ra, 44(sp)
c0006134:	04 00 c0 4f 	movehi s0, 393220
c0006138:	00 40 41 00 	or s0, s0, 4176
c000613c:	77 f6 ff f9 	call -9764 <slab_alloc>
c0006140:	00 03 f0 c0 	move s24, s0
c0006144:	7e 01 00 f8 	call 1528 <vm_allocate_page>
c0006148:	16 02 00 f8 	call 2136 <page_to_pa>
c000614c:	18 30 00 88 	store_32 s0, 12(s24)
c0006150:	5c f4 ff f9 	call -11920 <disable_interrupts>
c0006154:	24 00 c0 4f 	movehi s1, 393220
c0006158:	20 03 f0 c0 	move s25, s0
c000615c:	00 04 00 0f 	move s0, 1
c0006160:	41 93 49 00 	or s26, s1, 4708
c0006164:	60 03 00 0f 	move s27, 0
c0006168:	3a 00 00 a8 	load_32 s1, (s26)
c000616c:	e1 ff ff f5 	bnz s1, -4 <create_translation_map+0x4C>
c0006170:	3a 00 00 aa 	load_sync s1, (s26)
c0006174:	41 80 1d c1 	cmpne_i s2, s1, s27
c0006178:	82 00 00 f4 	bnz s2, 16 <create_translation_map+0x6C>
c000617c:	40 00 f0 c0 	move s2, s0
c0006180:	5a 00 00 8a 	store_sync s2, (s26)  
c0006184:	62 ff ff f3 	bz s2, -20 <create_translation_map+0x54>
c0006188:	21 00 00 10 	cmpeq_i s1, s1, 0
c000618c:	21 04 00 01 	and s1, s1, 1
c0006190:	c1 fe ff f3 	bz s1, -40 <create_translation_map+0x4C>
c0006194:	04 00 c0 4f 	movehi s0, 393220
c0006198:	38 30 00 a8 	load_32 s1, 12(s24)
c000619c:	40 00 c1 4f 	movehi s2, 395264
c00061a0:	00 40 49 00 	or s0, s0, 4688
c00061a4:	42 00 30 00 	or s2, s2, 3072
c00061a8:	60 30 00 a8 	load_32 s3, 12(s0)
c00061ac:	01 00 51 c0 	add_i s0, s1, s2
c00061b0:	23 00 51 c0 	add_i s1, s3, s2
c00061b4:	40 00 10 0f 	move s2, 1024
c00061b8:	25 f2 ff f9 	call -14188 <memcpy>
c00061bc:	04 00 c0 4f 	movehi s0, 393220
c00061c0:	44 00 c0 4f 	movehi s2, 393220
c00061c4:	00 a0 49 00 	or s0, s0, 4712
c00061c8:	20 00 00 a8 	load_32 s1, (s0)
c00061cc:	61 04 00 05 	add_i s3, s1, 1
c00061d0:	60 00 00 88 	store_32 s3, (s0)
c00061d4:	02 20 49 00 	or s0, s2, 4680
c00061d8:	38 40 00 88 	store_32 s1, 16(s24)
c00061dc:	78 23 00 88 	store_32 s27, 8(s24)
c00061e0:	20 00 00 a8 	load_32 s1, (s0)
c00061e4:	38 00 00 88 	store_32 s1, (s24)
c00061e8:	18 10 00 88 	store_32 s0, 4(s24)
c00061ec:	01 13 00 88 	store_32 s24, 4(s1)
c00061f0:	18 10 00 a8 	load_32 s0, 4(s24)
c00061f4:	00 03 00 88 	store_32 s24, (s0)
c00061f8:	7a 03 00 88 	store_32 s27, (s26)
c00061fc:	00 00 00 e8 	membar
c0006200:	00 80 fc c0 	move s0, s25
c0006204:	37 f4 ff f9 	call -12068 <restore_interrupts>
c0006208:	00 00 fc c0 	move s0, s24
c000620c:	fe b3 00 a8 	load_32 ra, 44(sp)
c0006210:	7e c3 00 a8 	load_32 s27, 48(sp)
c0006214:	5e d3 00 a8 	load_32 s26, 52(sp)
c0006218:	3e e3 00 a8 	load_32 s25, 56(sp)
c000621c:	1e f3 00 a8 	load_32 s24, 60(sp)
c0006220:	de 03 01 05 	add_i sp, sp, 64
c0006224:	1f 00 00 f0 	ret

destroy_translation_map:
c0006228:	de 03 ff 05 	add_i sp, sp, -64
c000622c:	1e f3 00 88 	store_32 s24, 60(sp)
c0006230:	3e e3 00 88 	store_32 s25, 56(sp)
c0006234:	5e d3 00 88 	store_32 s26, 52(sp)
c0006238:	fe c3 00 88 	store_32 ra, 48(sp)
c000623c:	00 03 f0 c0 	move s24, s0
c0006240:	20 f4 ff f9 	call -12160 <disable_interrupts>
c0006244:	24 00 c0 4f 	movehi s1, 393220
c0006248:	40 04 00 0f 	move s2, 1
c000624c:	20 03 00 0f 	move s25, 0
c0006250:	21 90 49 00 	or s1, s1, 4708
c0006254:	61 00 00 a8 	load_32 s3, (s1)
c0006258:	e3 ff ff f5 	bnz s3, -4 <destroy_translation_map+0x2C>
c000625c:	61 00 00 aa 	load_sync s3, (s1)
c0006260:	83 80 1c c1 	cmpne_i s4, s3, s25
c0006264:	84 00 00 f4 	bnz s4, 16 <destroy_translation_map+0x4C>
c0006268:	80 00 f1 c0 	move s4, s2
c000626c:	81 00 00 8a 	store_sync s4, (s1)  
c0006270:	64 ff ff f3 	bz s4, -20 <destroy_translation_map+0x34>
c0006274:	63 00 00 10 	cmpeq_i s3, s3, 0
c0006278:	63 04 00 01 	and s3, s3, 1
c000627c:	c3 fe ff f3 	bz s3, -40 <destroy_translation_map+0x2C>
c0006280:	58 10 00 a8 	load_32 s2, 4(s24)
c0006284:	78 00 00 a8 	load_32 s3, (s24)
c0006288:	43 10 00 88 	store_32 s2, 4(s3)
c000628c:	58 10 00 a8 	load_32 s2, 4(s24)
c0006290:	62 00 00 88 	store_32 s3, (s2)
c0006294:	38 13 00 88 	store_32 s25, 4(s24)
c0006298:	38 03 00 88 	store_32 s25, (s24)
c000629c:	21 03 00 88 	store_32 s25, (s1)
c00062a0:	00 00 00 e8 	membar
c00062a4:	0f f4 ff f9 	call -12228 <restore_interrupts>
c00062a8:	18 30 00 a8 	load_32 s0, 12(s24)
c00062ac:	20 00 c1 4f 	movehi s1, 395264
c00062b0:	40 83 50 c0 	add_i s26, s0, s1
c00062b4:	19 08 00 0b 	shl s0, s25, 2
c00062b8:	1a 00 50 c0 	add_i s0, s26, s0
c00062bc:	00 00 00 a8 	load_32 s0, (s0)
c00062c0:	20 04 00 01 	and s1, s0, 1
c00062c4:	81 00 00 f2 	bz s1, 16 <destroy_translation_map+0xAC>
c00062c8:	00 00 c0 01 	and s0, s0, -4096
c00062cc:	9a 01 00 f8 	call 1640 <pa_to_page>
c00062d0:	5e 01 00 f8 	call 1400 <dec_page_ref>
c00062d4:	19 fc 0b 18 	cmplt_u s0, s25, 767
c00062d8:	39 07 00 05 	add_i s25, s25, 1
c00062dc:	c0 fe ff f5 	bnz s0, -40 <destroy_translation_map+0x8C>
c00062e0:	18 30 00 a8 	load_32 s0, 12(s24)
c00062e4:	94 01 00 f8 	call 1616 <pa_to_page>
c00062e8:	58 01 00 f8 	call 1376 <dec_page_ref>
c00062ec:	04 00 c0 4f 	movehi s0, 393220
c00062f0:	20 00 fc c0 	move s1, s24
c00062f4:	00 40 41 00 	or s0, s0, 4176
c00062f8:	47 f6 ff f9 	call -9956 <slab_free>
c00062fc:	fe c3 00 a8 	load_32 ra, 48(sp)
c0006300:	5e d3 00 a8 	load_32 s26, 52(sp)
c0006304:	3e e3 00 a8 	load_32 s25, 56(sp)
c0006308:	1e f3 00 a8 	load_32 s24, 60(sp)
c000630c:	de 03 01 05 	add_i sp, sp, 64
c0006310:	1f 00 00 f0 	ret

vm_map_page:
c0006314:	de 03 ff 05 	add_i sp, sp, -64
c0006318:	1e f3 00 88 	store_32 s24, 60(sp)
c000631c:	3e e3 00 88 	store_32 s25, 56(sp)
c0006320:	5e d3 00 88 	store_32 s26, 52(sp)
c0006324:	7e c3 00 88 	store_32 s27, 48(sp)
c0006328:	9e b3 00 88 	store_32 s28, 44(sp)
c000632c:	fe a3 00 88 	store_32 ra, 40(sp)
c0006330:	00 83 f0 c0 	move s24, s1
c0006334:	20 00 c0 4f 	movehi s1, 393216
c0006338:	40 03 f0 c0 	move s26, s0
c000633c:	5e 90 00 88 	store_32 s2, 36(sp)
c0006340:	18 30 00 0a 	shr s0, s24, 12
c0006344:	38 5b 00 0a 	shr s25, s24, 22
c0006348:	38 80 80 c1 	cmplt_u s1, s24, s1
c000634c:	00 fc 0f 01 	and s0, s0, 1023
c0006350:	1e 80 00 88 	store_32 s0, 32(sp)
c0006354:	a1 05 00 f4 	bnz s1, 180 <vm_map_page+0xF4>
c0006358:	da f3 ff f9 	call -12440 <disable_interrupts>
c000635c:	24 00 c0 4f 	movehi s1, 393220
c0006360:	60 04 00 0f 	move s3, 1
c0006364:	40 03 00 0f 	move s26, 0
c0006368:	61 93 49 00 	or s27, s1, 4708
c000636c:	3b 00 00 a8 	load_32 s1, (s27)
c0006370:	e1 ff ff f5 	bnz s1, -4 <vm_map_page+0x58>
c0006374:	3b 00 00 aa 	load_sync s1, (s27)
c0006378:	41 00 1d c1 	cmpne_i s2, s1, s26
c000637c:	82 00 00 f4 	bnz s2, 16 <vm_map_page+0x78>
c0006380:	40 80 f1 c0 	move s2, s3
c0006384:	5b 00 00 8a 	store_sync s2, (s27)  
c0006388:	62 ff ff f3 	bz s2, -20 <vm_map_page+0x60>
c000638c:	21 00 00 10 	cmpeq_i s1, s1, 0
c0006390:	21 04 00 01 	and s1, s1, 1
c0006394:	c1 fe ff f3 	bz s1, -40 <vm_map_page+0x58>
c0006398:	24 00 c0 4f 	movehi s1, 393220
c000639c:	99 0b 00 0b 	shl s28, s25, 2
c00063a0:	20 03 c1 4f 	movehi s25, 395264
c00063a4:	21 40 49 00 	or s1, s1, 4688
c00063a8:	21 30 00 a8 	load_32 s1, 12(s1)
c00063ac:	21 00 5e c0 	add_i s1, s1, s28
c00063b0:	41 80 5c c0 	add_i s2, s1, s25
c00063b4:	82 00 00 a8 	load_32 s4, (s2)
c00063b8:	24 04 00 01 	and s1, s4, 1
c00063bc:	01 08 00 f4 	bnz s1, 256 <vm_map_page+0x1A8>
c00063c0:	5e 60 00 88 	store_32 s2, 24(sp)
c00063c4:	1e 70 00 88 	store_32 s0, 28(sp)
c00063c8:	dd 00 00 f8 	call 884 <vm_allocate_page>
c00063cc:	75 01 00 f8 	call 1492 <page_to_pa>
c00063d0:	24 00 c0 4f 	movehi s1, 393220
c00063d4:	21 20 49 00 	or s1, s1, 4680
c00063d8:	41 10 00 a8 	load_32 s2, 4(s1)
c00063dc:	62 80 00 c1 	cmpeq_i s3, s2, s1
c00063e0:	83 06 00 f4 	bnz s3, 208 <vm_map_page+0x19C>
c00063e4:	80 04 00 00 	or s4, s0, 1
c00063e8:	62 30 00 a8 	load_32 s3, 12(s2)
c00063ec:	63 00 5e c0 	add_i s3, s3, s28
c00063f0:	63 80 5c c0 	add_i s3, s3, s25
c00063f4:	83 00 00 88 	store_32 s4, (s3)
c00063f8:	42 10 00 a8 	load_32 s2, 4(s2)
c00063fc:	62 80 10 c1 	cmpne_i s3, s2, s1
c0006400:	43 ff ff f5 	bnz s3, -24 <vm_map_page+0xD4>
c0006404:	2d 00 00 f6 	b 180 <vm_map_page+0x1A4>
c0006408:	ae f3 ff f9 	call -12616 <disable_interrupts>
c000640c:	80 00 f0 c0 	move s4, s0
c0006410:	1a 20 00 05 	add_i s0, s26, 8
c0006414:	20 04 00 0f 	move s1, 1
c0006418:	60 03 00 0f 	move s27, 0
c000641c:	5a 20 00 a8 	load_32 s2, 8(s26)
c0006420:	e2 ff ff f5 	bnz s2, -4 <vm_map_page+0x108>
c0006424:	40 00 00 aa 	load_sync s2, (s0)
c0006428:	62 80 1d c1 	cmpne_i s3, s2, s27
c000642c:	83 00 00 f4 	bnz s3, 16 <vm_map_page+0x128>
c0006430:	60 80 f0 c0 	move s3, s1
c0006434:	60 00 00 8a 	store_sync s3, (s0)  
c0006438:	63 ff ff f3 	bz s3, -20 <vm_map_page+0x110>
c000643c:	42 00 00 10 	cmpeq_i s2, s2, 0
c0006440:	42 04 00 01 	and s2, s2, 1
c0006444:	c2 fe ff f3 	bz s2, -40 <vm_map_page+0x108>
c0006448:	1a 30 00 a8 	load_32 s0, 12(s26)
c000644c:	39 08 00 0b 	shl s1, s25, 2
c0006450:	20 03 c1 4f 	movehi s25, 395264
c0006454:	00 80 50 c0 	add_i s0, s0, s1
c0006458:	80 83 5c c0 	add_i s28, s0, s25
c000645c:	1c 00 00 a8 	load_32 s0, (s28)
c0006460:	20 04 00 01 	and s1, s0, 1
c0006464:	e1 00 00 f4 	bnz s1, 28 <vm_map_page+0x16C>
c0006468:	9e 70 00 88 	store_32 s4, 28(sp)
c000646c:	b4 00 00 f8 	call 720 <vm_allocate_page>
c0006470:	4c 01 00 f8 	call 1328 <page_to_pa>
c0006474:	9e 70 00 a8 	load_32 s4, 28(sp)
c0006478:	00 04 00 00 	or s0, s0, 1
c000647c:	1c 00 00 88 	store_32 s0, (s28)
c0006480:	00 80 5c c0 	add_i s0, s0, s25
c0006484:	3e 80 00 a8 	load_32 s1, 32(sp)
c0006488:	00 00 c0 01 	and s0, s0, -4096
c000648c:	21 08 00 0b 	shl s1, s1, 2
c0006490:	00 80 50 c0 	add_i s0, s0, s1
c0006494:	3e 90 00 a8 	load_32 s1, 36(sp)
c0006498:	20 00 00 88 	store_32 s1, (s0)
c000649c:	18 00 00 ea 	tlbinval s24
c00064a0:	7a 23 00 88 	store_32 s27, 8(s26)
c00064a4:	00 00 00 e8 	membar
c00064a8:	00 00 f2 c0 	move s0, s4
c00064ac:	0e 00 00 f6 	b 56 <vm_map_page+0x1D0>
c00064b0:	1e 60 00 a8 	load_32 s0, 24(sp)
c00064b4:	80 00 00 a8 	load_32 s4, (s0)
c00064b8:	1e 70 00 a8 	load_32 s0, 28(sp)
c00064bc:	24 80 5c c0 	add_i s1, s4, s25
c00064c0:	41 00 c0 01 	and s2, s1, -4096
c00064c4:	3e 80 00 a8 	load_32 s1, 32(sp)
c00064c8:	21 08 00 0b 	shl s1, s1, 2
c00064cc:	42 80 50 c0 	add_i s2, s2, s1
c00064d0:	3e 90 00 a8 	load_32 s1, 36(sp)
c00064d4:	22 00 00 88 	store_32 s1, (s2)
c00064d8:	18 00 00 ea 	tlbinval s24
c00064dc:	5b 03 00 88 	store_32 s26, (s27)
c00064e0:	00 00 00 e8 	membar
c00064e4:	7f f3 ff f9 	call -12804 <restore_interrupts>
c00064e8:	fe a3 00 a8 	load_32 ra, 40(sp)
c00064ec:	9e b3 00 a8 	load_32 s28, 44(sp)
c00064f0:	7e c3 00 a8 	load_32 s27, 48(sp)
c00064f4:	5e d3 00 a8 	load_32 s26, 52(sp)
c00064f8:	3e e3 00 a8 	load_32 s25, 56(sp)
c00064fc:	1e f3 00 a8 	load_32 s24, 60(sp)
c0006500:	de 03 01 05 	add_i sp, sp, 64
c0006504:	1f 00 00 f0 	ret

query_translation_map:
c0006508:	de 03 ff 05 	add_i sp, sp, -64
c000650c:	1e f3 00 88 	store_32 s24, 60(sp)
c0006510:	3e e3 00 88 	store_32 s25, 56(sp)
c0006514:	5e d3 00 88 	store_32 s26, 52(sp)
c0006518:	fe c3 00 88 	store_32 ra, 48(sp)
c000651c:	00 03 f0 c0 	move s24, s0
c0006520:	01 30 00 0a 	shr s0, s1, 12
c0006524:	40 00 c0 4f 	movehi s2, 393216
c0006528:	21 5b 00 0a 	shr s25, s1, 22
c000652c:	21 00 81 c1 	cmplt_u s1, s1, s2
c0006530:	40 ff 0f 01 	and s26, s0, 1023
c0006534:	61 04 00 f4 	bnz s1, 140 <query_translation_map+0xB8>
c0006538:	62 f3 ff f9 	call -12920 <disable_interrupts>
c000653c:	24 00 c0 4f 	movehi s1, 393220
c0006540:	60 04 00 0f 	move s3, 1
c0006544:	40 00 00 0f 	move s2, 0
c0006548:	21 90 49 00 	or s1, s1, 4708
c000654c:	81 00 00 a8 	load_32 s4, (s1)
c0006550:	e4 ff ff f5 	bnz s4, -4 <query_translation_map+0x44>
c0006554:	81 00 00 aa 	load_sync s4, (s1)
c0006558:	a4 00 11 c1 	cmpne_i s5, s4, s2
c000655c:	85 00 00 f4 	bnz s5, 16 <query_translation_map+0x64>
c0006560:	a0 80 f1 c0 	move s5, s3
c0006564:	a1 00 00 8a 	store_sync s5, (s1)  
c0006568:	65 ff ff f3 	bz s5, -20 <query_translation_map+0x4C>
c000656c:	84 00 00 10 	cmpeq_i s4, s4, 0
c0006570:	84 04 00 01 	and s4, s4, 1
c0006574:	c4 fe ff f3 	bz s4, -40 <query_translation_map+0x44>
c0006578:	64 00 c0 4f 	movehi s3, 393220
c000657c:	99 08 00 0b 	shl s4, s25, 2
c0006580:	63 40 49 00 	or s3, s3, 4688
c0006584:	63 30 00 a8 	load_32 s3, 12(s3)
c0006588:	83 00 52 c0 	add_i s4, s3, s4
c000658c:	60 00 c1 4f 	movehi s3, 395264
c0006590:	84 80 51 c0 	add_i s4, s4, s3
c0006594:	84 00 00 a8 	load_32 s4, (s4)
c0006598:	20 03 f1 c0 	move s25, s2
c000659c:	a4 04 00 01 	and s5, s4, 1
c00065a0:	c5 00 00 f2 	bz s5, 24 <query_translation_map+0xB0>
c00065a4:	64 80 51 c0 	add_i s3, s4, s3
c00065a8:	9a 08 00 0b 	shl s4, s26, 2
c00065ac:	63 00 c0 01 	and s3, s3, -4096
c00065b0:	63 00 52 c0 	add_i s3, s3, s4
c00065b4:	23 03 00 a8 	load_32 s25, (s3)
c00065b8:	41 00 00 88 	store_32 s2, (s1)
c00065bc:	1f 00 00 f6 	b 124 <query_translation_map+0x130>
c00065c0:	40 f3 ff f9 	call -13056 <disable_interrupts>
c00065c4:	58 20 00 05 	add_i s2, s24, 8
c00065c8:	60 04 00 0f 	move s3, 1
c00065cc:	20 00 00 0f 	move s1, 0
c00065d0:	98 20 00 a8 	load_32 s4, 8(s24)
c00065d4:	e4 ff ff f5 	bnz s4, -4 <query_translation_map+0xC8>
c00065d8:	82 00 00 aa 	load_sync s4, (s2)
c00065dc:	a4 80 10 c1 	cmpne_i s5, s4, s1
c00065e0:	85 00 00 f4 	bnz s5, 16 <query_translation_map+0xE8>
c00065e4:	a0 80 f1 c0 	move s5, s3
c00065e8:	a2 00 00 8a 	store_sync s5, (s2)  
c00065ec:	65 ff ff f3 	bz s5, -20 <query_translation_map+0xD0>
c00065f0:	84 00 00 10 	cmpeq_i s4, s4, 0
c00065f4:	84 04 00 01 	and s4, s4, 1
c00065f8:	c4 fe ff f3 	bz s4, -40 <query_translation_map+0xC8>
c00065fc:	58 30 00 a8 	load_32 s2, 12(s24)
c0006600:	79 08 00 0b 	shl s3, s25, 2
c0006604:	62 80 51 c0 	add_i s3, s2, s3
c0006608:	40 00 c1 4f 	movehi s2, 395264
c000660c:	63 00 51 c0 	add_i s3, s3, s2
c0006610:	63 00 00 a8 	load_32 s3, (s3)
c0006614:	20 83 f0 c0 	move s25, s1
c0006618:	83 04 00 01 	and s4, s3, 1
c000661c:	c4 00 00 f2 	bz s4, 24 <query_translation_map+0x12C>
c0006620:	43 00 51 c0 	add_i s2, s3, s2
c0006624:	7a 08 00 0b 	shl s3, s26, 2
c0006628:	42 00 c0 01 	and s2, s2, -4096
c000662c:	42 80 51 c0 	add_i s2, s2, s3
c0006630:	22 03 00 a8 	load_32 s25, (s2)
c0006634:	38 20 00 88 	store_32 s1, 8(s24)
c0006638:	00 00 00 e8 	membar
c000663c:	29 f3 ff f9 	call -13148 <restore_interrupts>
c0006640:	00 80 fc c0 	move s0, s25
c0006644:	fe c3 00 a8 	load_32 ra, 48(sp)
c0006648:	5e d3 00 a8 	load_32 s26, 52(sp)
c000664c:	3e e3 00 a8 	load_32 s25, 56(sp)
c0006650:	1e f3 00 a8 	load_32 s24, 60(sp)
c0006654:	de 03 01 05 	add_i sp, sp, 64
c0006658:	1f 00 00 f0 	ret

switch_to_translation_map:
c000665c:	20 30 00 a8 	load_32 s1, 12(s0)
c0006660:	2a 00 00 8c 	setcr s1, 10
c0006664:	00 40 00 a8 	load_32 s0, 16(s0)
c0006668:	09 00 00 8c 	setcr s0, 9
c000666c:	1f 00 00 f0 	ret

vm_page_init:
c0006670:	24 00 c0 4f 	movehi s1, 393220
c0006674:	64 00 c0 4f 	movehi s3, 393220
c0006678:	a4 00 c0 4f 	movehi s5, 393220
c000667c:	81 70 55 00 	or s4, s1, 5468
c0006680:	23 b0 49 00 	or s1, s3, 4716
c0006684:	40 30 00 0a 	shr s2, s0, 12
c0006688:	04 00 00 88 	store_32 s0, (s4)
c000668c:	05 10 40 00 	or s0, s5, 4100
c0006690:	21 10 00 88 	store_32 s1, 4(s1)
c0006694:	21 00 00 88 	store_32 s1, (s1)
c0006698:	e0 00 00 a8 	load_32 s7, (s0)
c000669c:	02 fc ff 05 	add_i s0, s2, -1
c00066a0:	47 00 30 c1 	cmpge_i s2, s7, s0
c00066a4:	a2 04 00 f4 	bnz s2, 148 <vm_page_init+0xC8>
c00066a8:	40 00 d0 4f 	movehi s2, 425984
c00066ac:	07 91 00 07 	mull_i s8, s7, 36
c00066b0:	80 00 00 0f 	move s4, 0
c00066b4:	62 60 00 00 	or s3, s2, 24
c00066b8:	a8 80 51 c0 	add_i s5, s8, s3
c00066bc:	c2 10 00 00 	or s6, s2, 4
c00066c0:	28 01 51 c0 	add_i s9, s8, s2
c00066c4:	85 00 00 88 	store_32 s4, (s5)
c00066c8:	a2 50 00 00 	or s5, s2, 20
c00066cc:	48 81 52 c0 	add_i s10, s8, s5
c00066d0:	08 01 53 c0 	add_i s8, s8, s6
c00066d4:	e7 04 00 05 	add_i s7, s7, 1
c00066d8:	8a 00 00 88 	store_32 s4, (s10)
c00066dc:	29 00 00 88 	store_32 s1, (s9)
c00066e0:	28 00 00 88 	store_32 s1, (s8)
c00066e4:	47 01 30 c1 	cmpge_i s10, s7, s0
c00066e8:	21 11 00 88 	store_32 s9, 4(s1)
c00066ec:	08 01 00 a8 	load_32 s8, (s8)
c00066f0:	28 01 00 88 	store_32 s9, (s8)
c00066f4:	2a 02 00 f4 	bnz s10, 68 <vm_page_init+0xC8>
c00066f8:	07 91 00 07 	mull_i s8, s7, 36
c00066fc:	41 01 00 a8 	load_32 s10, (s1)
c0006700:	e7 04 00 05 	add_i s7, s7, 1
c0006704:	28 81 51 c0 	add_i s9, s8, s3
c0006708:	68 01 51 c0 	add_i s11, s8, s2
c000670c:	89 00 00 88 	store_32 s4, (s9)
c0006710:	28 81 52 c0 	add_i s9, s8, s5
c0006714:	08 01 53 c0 	add_i s8, s8, s6
c0006718:	89 00 00 88 	store_32 s4, (s9)
c000671c:	27 01 40 c1 	cmplt_i s9, s7, s0
c0006720:	4b 01 00 88 	store_32 s10, (s11)
c0006724:	28 00 00 88 	store_32 s1, (s8)
c0006728:	6a 11 00 88 	store_32 s11, 4(s10)
c000672c:	08 01 00 a8 	load_32 s8, (s8)
c0006730:	68 01 00 88 	store_32 s11, (s8)
c0006734:	29 fe ff f5 	bnz s9, -60 <vm_page_init+0x88>
c0006738:	1f 00 00 f0 	ret

vm_allocate_page:
c000673c:	de 03 fe 05 	add_i sp, sp, -128
c0006740:	1e f3 01 88 	store_32 s24, 124(sp)
c0006744:	3e e3 01 88 	store_32 s25, 120(sp)
c0006748:	fe d3 01 88 	store_32 ra, 116(sp)
c000674c:	dd f2 ff f9 	call -13452 <disable_interrupts>
c0006750:	24 00 c0 4f 	movehi s1, 393220
c0006754:	40 04 00 0f 	move s2, 1
c0006758:	00 03 00 0f 	move s24, 0
c000675c:	21 d0 49 00 	or s1, s1, 4724
c0006760:	61 00 00 a8 	load_32 s3, (s1)
c0006764:	e3 ff ff f5 	bnz s3, -4 <vm_allocate_page+0x24>
c0006768:	61 00 00 aa 	load_sync s3, (s1)
c000676c:	83 00 1c c1 	cmpne_i s4, s3, s24
c0006770:	84 00 00 f4 	bnz s4, 16 <vm_allocate_page+0x44>
c0006774:	80 00 f1 c0 	move s4, s2
c0006778:	81 00 00 8a 	store_sync s4, (s1)  
c000677c:	64 ff ff f3 	bz s4, -20 <vm_allocate_page+0x2C>
c0006780:	63 00 00 10 	cmpeq_i s3, s3, 0
c0006784:	63 04 00 01 	and s3, s3, 1
c0006788:	c3 fe ff f3 	bz s3, -40 <vm_allocate_page+0x24>
c000678c:	64 00 c0 4f 	movehi s3, 393220
c0006790:	63 b0 49 00 	or s3, s3, 4716
c0006794:	23 13 00 a8 	load_32 s25, 4(s3)
c0006798:	79 80 01 c1 	cmpeq_i s3, s25, s3
c000679c:	03 04 00 f4 	bnz s3, 128 <vm_allocate_page+0xE0>
c00067a0:	79 10 00 a8 	load_32 s3, 4(s25)
c00067a4:	99 00 00 a8 	load_32 s4, (s25)
c00067a8:	64 10 00 88 	store_32 s3, 4(s4)
c00067ac:	79 10 00 a8 	load_32 s3, 4(s25)
c00067b0:	83 00 00 88 	store_32 s4, (s3)
c00067b4:	59 00 00 f4 	bnz s25, 8 <vm_allocate_page+0x80>
c00067b8:	19 00 00 f6 	b 100 <vm_allocate_page+0xE0>
c00067bc:	19 63 00 88 	store_32 s24, 24(s25)
c00067c0:	19 53 00 88 	store_32 s24, 20(s25)
c00067c4:	19 73 00 88 	store_32 s24, 28(s25)
c00067c8:	59 80 00 88 	store_32 s2, 32(s25)
c00067cc:	01 03 00 88 	store_32 s24, (s1)
c00067d0:	00 00 00 e8 	membar
c00067d4:	c3 f2 ff f9 	call -13556 <restore_interrupts>
c00067d8:	00 00 30 4f 	movehi s0, 98304
c00067dc:	19 00 50 c0 	add_i s0, s25, s0
c00067e0:	3c e0 38 4f 	movehi s1, 116508
c00067e4:	40 00 40 0f 	move s2, 4096
c00067e8:	00 08 00 0a 	shr s0, s0, 2
c00067ec:	21 00 40 00 	or s1, s1, 4096
c00067f0:	00 80 70 c0 	mull_i s0, s0, s1
c00067f4:	20 00 c1 4f 	movehi s1, 395264
c00067f8:	00 80 50 c0 	add_i s0, s0, s1
c00067fc:	20 00 fc c0 	move s1, s24
c0006800:	79 f0 ff f9 	call -15900 <memset>
c0006804:	00 80 fc c0 	move s0, s25
c0006808:	fe d3 01 a8 	load_32 ra, 116(sp)
c000680c:	3e e3 01 a8 	load_32 s25, 120(sp)
c0006810:	1e f3 01 a8 	load_32 s24, 124(sp)
c0006814:	de 03 02 05 	add_i sp, sp, 128
c0006818:	1f 00 00 f0 	ret
c000681c:	00 00 c0 4f 	movehi s0, 393216
c0006820:	00 f0 1c 00 	or s0, s0, 1852
c0006824:	1e 00 00 88 	store_32 s0, (sp)
c0006828:	5c f0 ff f9 	call -16016 <panic>

inc_page_ref:
c000682c:	00 80 00 05 	add_i s0, s0, 32
c0006830:	20 00 00 aa 	load_sync s1, (s0)
c0006834:	41 04 00 05 	add_i s2, s1, 1
c0006838:	20 80 f0 c0 	move s1, s1
c000683c:	40 00 00 8a 	store_sync s2, (s0)  
c0006840:	82 ff ff f3 	bz s2, -16 <inc_page_ref+0x4>
c0006844:	1f 00 00 f0 	ret

dec_page_ref:
c0006848:	de 03 fe 05 	add_i sp, sp, -128
c000684c:	1e f3 01 88 	store_32 s24, 124(sp)
c0006850:	fe e3 01 88 	store_32 ra, 120(sp)
c0006854:	00 03 f0 c0 	move s24, s0
c0006858:	18 80 00 a8 	load_32 s0, 32(s24)
c000685c:	00 00 00 12 	cmpgt_i s0, s0, 0
c0006860:	40 00 00 f4 	bnz s0, 8 <dec_page_ref+0x20>
c0006864:	28 00 00 f6 	b 160 <dec_page_ref+0xBC>
c0006868:	18 80 00 05 	add_i s0, s24, 32
c000686c:	20 00 00 aa 	load_sync s1, (s0)
c0006870:	41 fc ff 05 	add_i s2, s1, -1
c0006874:	20 80 f0 c0 	move s1, s1
c0006878:	40 00 00 8a 	store_sync s2, (s0)  
c000687c:	82 ff ff f3 	bz s2, -16 <dec_page_ref+0x24>
c0006880:	01 04 00 11 	cmpne_i s0, s1, 1
c0006884:	80 03 00 f4 	bnz s0, 112 <dec_page_ref+0xAC>
c0006888:	8e f2 ff f9 	call -13768 <disable_interrupts>
c000688c:	24 00 c0 4f 	movehi s1, 393220
c0006890:	60 04 00 0f 	move s3, 1
c0006894:	40 00 00 0f 	move s2, 0
c0006898:	21 d0 49 00 	or s1, s1, 4724
c000689c:	81 00 00 a8 	load_32 s4, (s1)
c00068a0:	e4 ff ff f5 	bnz s4, -4 <dec_page_ref+0x54>
c00068a4:	81 00 00 aa 	load_sync s4, (s1)
c00068a8:	a4 00 11 c1 	cmpne_i s5, s4, s2
c00068ac:	85 00 00 f4 	bnz s5, 16 <dec_page_ref+0x74>
c00068b0:	a0 80 f1 c0 	move s5, s3
c00068b4:	a1 00 00 8a 	store_sync s5, (s1)  
c00068b8:	65 ff ff f3 	bz s5, -20 <dec_page_ref+0x5C>
c00068bc:	84 00 00 10 	cmpeq_i s4, s4, 0
c00068c0:	84 04 00 01 	and s4, s4, 1
c00068c4:	c4 fe ff f3 	bz s4, -40 <dec_page_ref+0x54>
c00068c8:	64 00 c0 4f 	movehi s3, 393220
c00068cc:	63 b0 49 00 	or s3, s3, 4716
c00068d0:	78 00 00 88 	store_32 s3, (s24)
c00068d4:	83 10 00 a8 	load_32 s4, 4(s3)
c00068d8:	98 10 00 88 	store_32 s4, 4(s24)
c00068dc:	03 13 00 88 	store_32 s24, 4(s3)
c00068e0:	78 10 00 a8 	load_32 s3, 4(s24)
c00068e4:	03 03 00 88 	store_32 s24, (s3)
c00068e8:	41 00 00 88 	store_32 s2, (s1)
c00068ec:	00 00 00 e8 	membar
c00068f0:	7c f2 ff f9 	call -13840 <restore_interrupts>
c00068f4:	fe e3 01 a8 	load_32 ra, 120(sp)
c00068f8:	1e f3 01 a8 	load_32 s24, 124(sp)
c00068fc:	de 03 02 05 	add_i sp, sp, 128
c0006900:	1f 00 00 f0 	ret
c0006904:	00 00 c0 4f 	movehi s0, 393216
c0006908:	20 54 01 0f 	move s1, 85
c000690c:	3e 20 00 88 	store_32 s1, 8(sp)
c0006910:	20 00 c0 4f 	movehi s1, 393216
c0006914:	00 54 1d 00 	or s0, s0, 1877
c0006918:	1e 30 00 88 	store_32 s0, 12(sp)
c000691c:	00 00 c0 4f 	movehi s0, 393216
c0006920:	21 2c 1d 00 	or s1, s1, 1867
c0006924:	3e 10 00 88 	store_32 s1, 4(sp)
c0006928:	00 e4 04 00 	or s0, s0, 313
c000692c:	1e 00 00 88 	store_32 s0, (sp)
c0006930:	1a f0 ff f9 	call -16280 <panic>

pa_to_page:
c0006934:	de 03 fe 05 	add_i sp, sp, -128
c0006938:	fe f3 01 88 	store_32 ra, 124(sp)
c000693c:	24 00 c0 4f 	movehi s1, 393220
c0006940:	21 70 55 00 	or s1, s1, 5468
c0006944:	21 00 00 a8 	load_32 s1, (s1)
c0006948:	21 00 60 c1 	cmpgt_u s1, s1, s0
c000694c:	41 00 00 f4 	bnz s1, 8 <pa_to_page+0x20>
c0006950:	08 00 00 f6 	b 32 <pa_to_page+0x3C>
c0006954:	00 30 00 0a 	shr s0, s0, 12
c0006958:	fe f3 01 a8 	load_32 ra, 124(sp)
c000695c:	20 00 d0 4f 	movehi s1, 425984
c0006960:	00 90 00 07 	mull_i s0, s0, 36
c0006964:	00 80 00 c0 	or s0, s0, s1
c0006968:	de 03 02 05 	add_i sp, sp, 128
c000696c:	1f 00 00 f0 	ret
c0006970:	00 00 c0 4f 	movehi s0, 393216
c0006974:	20 84 01 0f 	move s1, 97
c0006978:	3e 20 00 88 	store_32 s1, 8(sp)
c000697c:	20 00 c0 4f 	movehi s1, 393216
c0006980:	00 a4 1d 00 	or s0, s0, 1897
c0006984:	1e 30 00 88 	store_32 s0, 12(sp)
c0006988:	00 00 c0 4f 	movehi s0, 393216
c000698c:	21 2c 1d 00 	or s1, s1, 1867
c0006990:	3e 10 00 88 	store_32 s1, 4(sp)
c0006994:	00 e4 04 00 	or s0, s0, 313
c0006998:	1e 00 00 88 	store_32 s0, (sp)
c000699c:	ff ef ff f9 	call -16388 <panic>

page_to_pa:
c00069a0:	20 00 30 4f 	movehi s1, 98304
c00069a4:	00 80 50 c0 	add_i s0, s0, s1
c00069a8:	3c e0 38 4f 	movehi s1, 116508
c00069ac:	00 08 00 0a 	shr s0, s0, 2
c00069b0:	21 00 40 00 	or s1, s1, 4096
c00069b4:	00 80 70 c0 	mull_i s0, s0, s1
c00069b8:	1f 00 00 f0 	ret

allocate_contiguous_memory:
c00069bc:	de 03 ff 05 	add_i sp, sp, -64
c00069c0:	1e f3 00 88 	store_32 s24, 60(sp)
c00069c4:	3e e3 00 88 	store_32 s25, 56(sp)
c00069c8:	5e d3 00 88 	store_32 s26, 52(sp)
c00069cc:	fe c3 00 88 	store_32 ra, 48(sp)
c00069d0:	24 00 c0 4f 	movehi s1, 393220
c00069d4:	20 ff 3f 05 	add_i s25, s0, 4095
c00069d8:	21 70 55 00 	or s1, s1, 5468
c00069dc:	41 03 00 a8 	load_32 s26, (s1)
c00069e0:	38 f2 ff f9 	call -14112 <disable_interrupts>
c00069e4:	24 00 c0 4f 	movehi s1, 393220
c00069e8:	a0 04 00 0f 	move s5, 1
c00069ec:	00 03 00 0f 	move s24, 0
c00069f0:	21 d0 49 00 	or s1, s1, 4724
c00069f4:	41 00 00 a8 	load_32 s2, (s1)
c00069f8:	e2 ff ff f5 	bnz s2, -4 <allocate_contiguous_memory+0x38>
c00069fc:	41 00 00 aa 	load_sync s2, (s1)
c0006a00:	62 00 1c c1 	cmpne_i s3, s2, s24
c0006a04:	83 00 00 f4 	bnz s3, 16 <allocate_contiguous_memory+0x58>
c0006a08:	60 80 f2 c0 	move s3, s5
c0006a0c:	61 00 00 8a 	store_sync s3, (s1)  
c0006a10:	63 ff ff f3 	bz s3, -20 <allocate_contiguous_memory+0x40>
c0006a14:	42 00 00 10 	cmpeq_i s2, s2, 0
c0006a18:	42 04 00 01 	and s2, s2, 1
c0006a1c:	c2 fe ff f3 	bz s2, -40 <allocate_contiguous_memory+0x38>
c0006a20:	9a 30 00 0a 	shr s4, s26, 12
c0006a24:	40 00 d0 4f 	movehi s2, 425984
c0006a28:	79 30 00 0a 	shr s3, s25, 12
c0006a2c:	c4 80 61 c0 	sub_i s6, s4, s3
c0006a30:	82 80 00 00 	or s4, s2, 32
c0006a34:	02 00 00 f6 	b 8 <allocate_contiguous_memory+0x80>
c0006a38:	07 03 5c c0 	add_i s24, s7, s24
c0006a3c:	f8 90 00 07 	mull_i s7, s24, 36
c0006a40:	e7 00 52 c0 	add_i s7, s7, s4
c0006a44:	e7 00 00 a8 	load_32 s7, (s7)
c0006a48:	e7 04 00 14 	cmplt_i s7, s7, 1
c0006a4c:	47 01 00 f4 	bnz s7, 40 <allocate_contiguous_memory+0xB8>
c0006a50:	f8 00 13 c1 	cmpne_i s7, s24, s6
c0006a54:	47 00 00 f4 	bnz s7, 8 <allocate_contiguous_memory+0xA0>
c0006a58:	2e 00 00 f6 	b 184 <allocate_contiguous_memory+0x154>
c0006a5c:	18 07 00 05 	add_i s24, s24, 1
c0006a60:	f8 90 00 07 	mull_i s7, s24, 36
c0006a64:	e7 00 52 c0 	add_i s7, s7, s4
c0006a68:	e7 00 00 a8 	load_32 s7, (s7)
c0006a6c:	e7 00 00 12 	cmpgt_i s7, s7, 0
c0006a70:	07 ff ff f5 	bnz s7, -32 <allocate_contiguous_memory+0x94>
c0006a74:	e0 80 f2 c0 	move s7, s5
c0006a78:	07 81 81 c1 	cmplt_u s8, s7, s3
c0006a7c:	48 00 00 f4 	bnz s8, 8 <allocate_contiguous_memory+0xC8>
c0006a80:	09 00 00 f6 	b 36 <allocate_contiguous_memory+0xE8>
c0006a84:	07 01 5c c0 	add_i s8, s7, s24
c0006a88:	e7 04 00 05 	add_i s7, s7, 1
c0006a8c:	08 91 00 07 	mull_i s8, s8, 36
c0006a90:	08 01 52 c0 	add_i s8, s8, s4
c0006a94:	08 01 00 a8 	load_32 s8, (s8)
c0006a98:	08 05 00 14 	cmplt_i s8, s8, 1
c0006a9c:	e8 fe ff f5 	bnz s8, -36 <allocate_contiguous_memory+0xBC>
c0006aa0:	e6 ff ff f7 	b -104 <allocate_contiguous_memory+0x7C>
c0006aa4:	a3 02 00 f2 	bz s3, 84 <allocate_contiguous_memory+0x13C>
c0006aa8:	a0 00 00 0f 	move s5, 0
c0006aac:	c0 04 00 0f 	move s6, 1
c0006ab0:	e2 10 00 00 	or s7, s2, 4
c0006ab4:	00 81 f2 c0 	move s8, s5
c0006ab8:	28 01 5c c0 	add_i s9, s8, s24
c0006abc:	08 05 00 05 	add_i s8, s8, 1
c0006ac0:	29 91 00 07 	mull_i s9, s9, 36
c0006ac4:	49 01 52 c0 	add_i s10, s9, s4
c0006ac8:	69 81 53 c0 	add_i s11, s9, s7
c0006acc:	29 01 51 c0 	add_i s9, s9, s2
c0006ad0:	ca 00 00 88 	store_32 s6, (s10)
c0006ad4:	4b 01 00 a8 	load_32 s10, (s11)
c0006ad8:	89 01 00 a8 	load_32 s12, (s9)
c0006adc:	4c 11 00 88 	store_32 s10, 4(s12)
c0006ae0:	4b 01 00 a8 	load_32 s10, (s11)
c0006ae4:	8a 01 00 88 	store_32 s12, (s10)
c0006ae8:	48 81 81 c1 	cmplt_u s10, s8, s3
c0006aec:	ab 00 00 88 	store_32 s5, (s11)
c0006af0:	a9 00 00 88 	store_32 s5, (s9)
c0006af4:	2a fe ff f5 	bnz s10, -60 <allocate_contiguous_memory+0xFC>
c0006af8:	40 00 00 0f 	move s2, 0
c0006afc:	41 00 00 88 	store_32 s2, (s1)
c0006b00:	00 00 00 e8 	membar
c0006b04:	f7 f1 ff f9 	call -14372 <restore_interrupts>
c0006b08:	18 30 00 0b 	shl s0, s24, 12
c0006b0c:	06 00 00 f6 	b 24 <allocate_contiguous_memory+0x168>
c0006b10:	40 00 00 0f 	move s2, 0
c0006b14:	41 00 00 88 	store_32 s2, (s1)
c0006b18:	00 00 00 e8 	membar
c0006b1c:	f1 f1 ff f9 	call -14396 <restore_interrupts>
c0006b20:	00 fc ff 0f 	move s0, -1
c0006b24:	fe c3 00 a8 	load_32 ra, 48(sp)
c0006b28:	5e d3 00 a8 	load_32 s26, 52(sp)
c0006b2c:	3e e3 00 a8 	load_32 s25, 56(sp)
c0006b30:	1e f3 00 a8 	load_32 s24, 60(sp)
c0006b34:	de 03 01 05 	add_i sp, sp, 64
c0006b38:	1f 00 00 f0 	ret

init_area_map:
c0006b3c:	42 04 00 05 	add_i s2, s2, 1
c0006b40:	21 00 c0 01 	and s1, s1, -4096
c0006b44:	20 00 00 88 	store_32 s1, (s0)
c0006b48:	42 00 c0 01 	and s2, s2, -4096
c0006b4c:	22 fc ff 05 	add_i s1, s2, -1
c0006b50:	20 10 00 88 	store_32 s1, 4(s0)
c0006b54:	20 20 00 05 	add_i s1, s0, 8
c0006b58:	20 30 00 88 	store_32 s1, 12(s0)
c0006b5c:	20 20 00 88 	store_32 s1, 8(s0)
c0006b60:	1f 00 00 f0 	ret

create_vm_area:
c0006b64:	de 03 ff 05 	add_i sp, sp, -64
c0006b68:	1e f3 00 88 	store_32 s24, 60(sp)
c0006b6c:	3e e3 00 88 	store_32 s25, 56(sp)
c0006b70:	5e d3 00 88 	store_32 s26, 52(sp)
c0006b74:	7e c3 00 88 	store_32 s27, 48(sp)
c0006b78:	9e b3 00 88 	store_32 s28, 44(sp)
c0006b7c:	fe a3 00 88 	store_32 ra, 40(sp)
c0006b80:	42 fc 3f 05 	add_i s2, s2, 4095
c0006b84:	e0 80 f2 c0 	move s7, s5
c0006b88:	60 83 f0 c0 	move s27, s1
c0006b8c:	42 03 c0 01 	and s26, s2, -4096
c0006b90:	23 08 00 10 	cmpeq_i s1, s3, 2
c0006b94:	20 01 00 0f 	move s9, 0
c0006b98:	81 04 00 f4 	bnz s1, 144 <create_vm_area+0xC4>
c0006b9c:	23 04 00 10 	cmpeq_i s1, s3, 1
c0006ba0:	41 06 00 f4 	bnz s1, 200 <create_vm_area+0x104>
c0006ba4:	e3 04 00 f4 	bnz s3, 156 <create_vm_area+0xDC>
c0006ba8:	20 00 00 a8 	load_32 s1, (s0)
c0006bac:	21 80 6d c1 	cmpgt_u s1, s1, s27
c0006bb0:	81 04 00 f4 	bnz s1, 144 <create_vm_area+0xDC>
c0006bb4:	3b 00 5d c0 	add_i s1, s27, s26
c0006bb8:	01 ff ff 05 	add_i s24, s1, -1
c0006bbc:	20 10 00 a8 	load_32 s1, 4(s0)
c0006bc0:	58 80 8d c1 	cmplt_u s2, s24, s27
c0006bc4:	e2 03 00 f4 	bnz s2, 124 <create_vm_area+0xDC>
c0006bc8:	38 80 60 c1 	cmpgt_u s1, s24, s1
c0006bcc:	a1 03 00 f4 	bnz s1, 116 <create_vm_area+0xDC>
c0006bd0:	9e 90 00 88 	store_32 s4, 36(sp)
c0006bd4:	20 23 00 05 	add_i s25, s0, 8
c0006bd8:	80 33 00 a8 	load_32 s28, 12(s0)
c0006bdc:	1c 80 1c c1 	cmpne_i s0, s28, s25
c0006be0:	40 00 00 f4 	bnz s0, 8 <create_vm_area+0x84>
c0006be4:	c8 00 00 f6 	b 800 <create_vm_area+0x3A0>
c0006be8:	20 00 00 0f 	move s1, 0
c0006bec:	00 80 f0 c0 	move s0, s1
c0006bf0:	a0 02 00 f4 	bnz s0, 84 <create_vm_area+0xE0>
c0006bf4:	1c 20 00 a8 	load_32 s0, 8(s28)
c0006bf8:	00 00 8c c1 	cmplt_u s0, s0, s24
c0006bfc:	40 00 00 f4 	bnz s0, 8 <create_vm_area+0xA0>
c0006c00:	cf 00 00 f6 	b 828 <create_vm_area+0x3D8>
c0006c04:	5c 30 00 a8 	load_32 s2, 12(s28)
c0006c08:	9c 13 00 a8 	load_32 s28, 4(s28)
c0006c0c:	02 80 6d c1 	cmpgt_u s0, s2, s27
c0006c10:	7c 80 1c c1 	cmpne_i s3, s28, s25
c0006c14:	e3 fe ff f5 	bnz s3, -36 <create_vm_area+0x8C>
c0006c18:	02 80 6d c1 	cmpgt_u s0, s2, s27
c0006c1c:	fe 80 00 88 	store_32 s7, 32(sp)
c0006c20:	20 01 00 f4 	bnz s0, 36 <create_vm_area+0xE0>
c0006c24:	b9 00 00 f6 	b 740 <create_vm_area+0x3A4>
c0006c28:	40 00 00 a8 	load_32 s2, (s0)
c0006c2c:	7a 80 5d c0 	add_i s3, s26, s27
c0006c30:	20 10 00 a8 	load_32 s1, 4(s0)
c0006c34:	63 80 60 c1 	cmpgt_u s3, s3, s1
c0006c38:	43 00 00 f4 	bnz s3, 8 <create_vm_area+0xDC>
c0006c3c:	32 00 00 f6 	b 200 <create_vm_area+0x1A0>
c0006c40:	20 80 f4 c0 	move s1, s9
c0006c44:	00 80 f0 c0 	move s0, s1
c0006c48:	fe a3 00 a8 	load_32 ra, 40(sp)
c0006c4c:	9e b3 00 a8 	load_32 s28, 44(sp)
c0006c50:	7e c3 00 a8 	load_32 s27, 48(sp)
c0006c54:	5e d3 00 a8 	load_32 s26, 52(sp)
c0006c58:	3e e3 00 a8 	load_32 s25, 56(sp)
c0006c5c:	1e f3 00 a8 	load_32 s24, 60(sp)
c0006c60:	de 03 01 05 	add_i sp, sp, 64
c0006c64:	1f 00 00 f0 	ret
c0006c68:	20 30 00 a8 	load_32 s1, 12(s0)
c0006c6c:	00 23 00 05 	add_i s24, s0, 8
c0006c70:	01 01 0c c1 	cmpeq_i s8, s1, s24
c0006c74:	20 00 00 0f 	move s1, 0
c0006c78:	20 83 f0 c0 	move s25, s1
c0006c7c:	48 00 00 f4 	bnz s8, 8 <create_vm_area+0x120>
c0006c80:	38 03 00 a8 	load_32 s25, (s24)
c0006c84:	60 10 00 a8 	load_32 s3, 4(s0)
c0006c88:	bb 00 6d c0 	sub_i s5, s27, s26
c0006c8c:	40 00 00 a8 	load_32 s2, (s0)
c0006c90:	a5 00 81 c1 	cmplt_u s5, s5, s2
c0006c94:	85 fd ff f5 	bnz s5, -80 <create_vm_area+0xE0>
c0006c98:	c3 80 8d c1 	cmplt_u s6, s3, s27
c0006c9c:	a0 80 f1 c0 	move s5, s3
c0006ca0:	46 00 00 f4 	bnz s6, 8 <create_vm_area+0x144>
c0006ca4:	a0 80 fd c0 	move s5, s27
c0006ca8:	a5 04 00 05 	add_i s5, s5, 1
c0006cac:	fe 80 00 88 	store_32 s7, 32(sp)
c0006cb0:	9e 90 00 88 	store_32 s4, 36(sp)
c0006cb4:	a5 00 c0 01 	and s5, s5, -4096
c0006cb8:	65 ff ff 05 	add_i s27, s5, -1
c0006cbc:	88 05 00 f4 	bnz s8, 176 <create_vm_area+0x208>
c0006cc0:	b9 01 00 f2 	bz s25, 52 <create_vm_area+0x190>
c0006cc4:	00 01 00 0f 	move s8, 0
c0006cc8:	b9 30 00 a8 	load_32 s5, 12(s25)
c0006ccc:	c5 80 9d c1 	cmple_u s6, s5, s27
c0006cd0:	66 06 00 f4 	bnz s6, 204 <create_vm_area+0x238>
c0006cd4:	79 20 00 a8 	load_32 s3, 8(s25)
c0006cd8:	b9 00 00 a8 	load_32 s5, (s25)
c0006cdc:	20 03 f4 c0 	move s25, s8
c0006ce0:	c5 00 0c c1 	cmpeq_i s6, s5, s24
c0006ce4:	46 00 00 f4 	bnz s6, 8 <create_vm_area+0x188>
c0006ce8:	20 83 f2 c0 	move s25, s5
c0006cec:	63 fc ff 05 	add_i s3, s3, -1
c0006cf0:	d9 fe ff f5 	bnz s25, -40 <create_vm_area+0x164>
c0006cf4:	83 80 6d c1 	cmpgt_u s4, s3, s27
c0006cf8:	24 16 00 f4 	bnz s4, 708 <create_vm_area+0x458>
c0006cfc:	60 83 f1 c0 	move s27, s3
c0006d00:	af 00 00 f6 	b 700 <create_vm_area+0x458>
c0006d04:	a2 80 6d c1 	cmpgt_u s5, s2, s27
c0006d08:	60 00 f1 c0 	move s3, s2
c0006d0c:	45 00 00 f4 	bnz s5, 8 <create_vm_area+0x1B0>
c0006d10:	60 80 fd c0 	move s3, s27
c0006d14:	20 33 00 a8 	load_32 s25, 12(s0)
c0006d18:	00 23 00 05 	add_i s24, s0, 8
c0006d1c:	63 03 c0 01 	and s27, s3, -4096
c0006d20:	19 00 0c c1 	cmpeq_i s0, s25, s24
c0006d24:	e0 0c 00 f4 	bnz s0, 412 <create_vm_area+0x35C>
c0006d28:	b9 01 00 f2 	bz s25, 52 <create_vm_area+0x1F8>
c0006d2c:	00 00 00 0f 	move s0, 0
c0006d30:	79 20 00 a8 	load_32 s3, 8(s25)
c0006d34:	a3 80 7d c1 	cmpge_u s5, s3, s27
c0006d38:	c5 07 00 f4 	bnz s5, 248 <create_vm_area+0x2CC>
c0006d3c:	59 30 00 a8 	load_32 s2, 12(s25)
c0006d40:	79 10 00 a8 	load_32 s3, 4(s25)
c0006d44:	20 03 f0 c0 	move s25, s0
c0006d48:	a3 00 0c c1 	cmpeq_i s5, s3, s24
c0006d4c:	45 00 00 f4 	bnz s5, 8 <create_vm_area+0x1F0>
c0006d50:	20 83 f1 c0 	move s25, s3
c0006d54:	42 04 00 05 	add_i s2, s2, 1
c0006d58:	d9 fe ff f5 	bnz s25, -40 <create_vm_area+0x1CC>
c0006d5c:	02 80 8d c1 	cmplt_u s0, s2, s27
c0006d60:	80 0a 00 f4 	bnz s0, 336 <create_vm_area+0x34C>
c0006d64:	60 03 f1 c0 	move s27, s2
c0006d68:	52 00 00 f6 	b 328 <create_vm_area+0x34C>
c0006d6c:	00 04 00 0f 	move s0, 1
c0006d70:	00 00 6d c0 	sub_i s0, s0, s26
c0006d74:	40 83 f4 c0 	move s26, s9
c0006d78:	20 83 5d c0 	add_i s25, s0, s27
c0006d7c:	04 00 c0 4f 	movehi s0, 393220
c0006d80:	00 a0 41 00 	or s0, s0, 4200
c0006d84:	65 f3 ff f9 	call -12908 <slab_alloc>
c0006d88:	40 00 fd c0 	move s2, s26
c0006d8c:	40 03 f0 c0 	move s26, s0
c0006d90:	3a 23 00 88 	store_32 s25, 8(s26)
c0006d94:	7a 33 00 88 	store_32 s27, 12(s26)
c0006d98:	56 00 00 f6 	b 344 <create_vm_area+0x38C>
c0006d9c:	c3 80 6d c1 	cmpgt_u s6, s3, s27
c0006da0:	46 00 00 f4 	bnz s6, 8 <create_vm_area+0x244>
c0006da4:	60 83 f1 c0 	move s27, s3
c0006da8:	7b 04 00 05 	add_i s3, s27, 1
c0006dac:	63 80 62 c0 	sub_i s3, s3, s5
c0006db0:	63 00 7d c1 	cmpge_u s3, s3, s26
c0006db4:	c3 01 00 f4 	bnz s3, 56 <create_vm_area+0x288>
c0006db8:	60 00 00 0f 	move s3, 0
c0006dbc:	19 21 00 a8 	load_32 s8, 8(s25)
c0006dc0:	b9 00 00 a8 	load_32 s5, (s25)
c0006dc4:	20 83 f1 c0 	move s25, s3
c0006dc8:	c5 00 0c c1 	cmpeq_i s6, s5, s24
c0006dcc:	46 00 00 f4 	bnz s6, 8 <create_vm_area+0x270>
c0006dd0:	20 83 f2 c0 	move s25, s5
c0006dd4:	39 0f 00 f2 	bz s25, 484 <create_vm_area+0x454>
c0006dd8:	b9 30 00 a8 	load_32 s5, 12(s25)
c0006ddc:	a8 80 62 c0 	sub_i s5, s8, s5
c0006de0:	a5 00 8d c1 	cmplt_u s5, s5, s26
c0006de4:	c5 fe ff f5 	bnz s5, -40 <create_vm_area+0x258>
c0006de8:	68 ff ff 05 	add_i s27, s8, -1
c0006dec:	3e 71 00 88 	store_32 s9, 28(sp)
c0006df0:	00 04 00 0f 	move s0, 1
c0006df4:	00 00 6d c0 	sub_i s0, s0, s26
c0006df8:	00 83 5d c0 	add_i s24, s0, s27
c0006dfc:	04 00 c0 4f 	movehi s0, 393220
c0006e00:	00 a0 41 00 	or s0, s0, 4200
c0006e04:	45 f3 ff f9 	call -13036 <slab_alloc>
c0006e08:	40 03 f0 c0 	move s26, s0
c0006e0c:	99 13 00 05 	add_i s28, s25, 4
c0006e10:	1a 23 00 88 	store_32 s24, 8(s26)
c0006e14:	1a 10 00 05 	add_i s0, s26, 4
c0006e18:	7a 33 00 88 	store_32 s27, 12(s26)
c0006e1c:	3a 03 00 88 	store_32 s25, (s26)
c0006e20:	39 10 00 a8 	load_32 s1, 4(s25)
c0006e24:	3a 10 00 88 	store_32 s1, 4(s26)
c0006e28:	5e 70 00 a8 	load_32 s2, 28(sp)
c0006e2c:	52 00 00 f6 	b 328 <create_vm_area+0x410>
c0006e30:	02 80 8d c1 	cmplt_u s0, s2, s27
c0006e34:	40 00 00 f4 	bnz s0, 8 <create_vm_area+0x2D8>
c0006e38:	60 03 f1 c0 	move s27, s2
c0006e3c:	03 80 6d c0 	sub_i s0, s3, s27
c0006e40:	00 00 7d c1 	cmpge_u s0, s0, s26
c0006e44:	c0 01 00 f4 	bnz s0, 56 <create_vm_area+0x318>
c0006e48:	00 00 00 0f 	move s0, 0
c0006e4c:	59 30 00 a8 	load_32 s2, 12(s25)
c0006e50:	79 10 00 a8 	load_32 s3, 4(s25)
c0006e54:	20 03 f0 c0 	move s25, s0
c0006e58:	a3 00 0c c1 	cmpeq_i s5, s3, s24
c0006e5c:	45 00 00 f4 	bnz s5, 8 <create_vm_area+0x300>
c0006e60:	20 83 f1 c0 	move s25, s3
c0006e64:	62 07 00 05 	add_i s27, s2, 1
c0006e68:	59 02 00 f2 	bz s25, 72 <create_vm_area+0x34C>
c0006e6c:	59 20 00 a8 	load_32 s2, 8(s25)
c0006e70:	42 80 6d c0 	sub_i s2, s2, s27
c0006e74:	42 00 8d c1 	cmplt_u s2, s2, s26
c0006e78:	a2 fe ff f5 	bnz s2, -44 <create_vm_area+0x2E8>
c0006e7c:	04 00 c0 4f 	movehi s0, 393220
c0006e80:	9e 90 00 88 	store_32 s4, 36(sp)
c0006e84:	fe 80 00 88 	store_32 s7, 32(sp)
c0006e88:	00 83 f4 c0 	move s24, s9
c0006e8c:	00 a0 41 00 	or s0, s0, 4200
c0006e90:	22 f3 ff f9 	call -13176 <slab_alloc>
c0006e94:	40 00 fc c0 	move s2, s24
c0006e98:	3a 80 5d c0 	add_i s1, s26, s27
c0006e9c:	40 03 f0 c0 	move s26, s0
c0006ea0:	01 fc ff 05 	add_i s0, s1, -1
c0006ea4:	7a 23 00 88 	store_32 s27, 8(s26)
c0006ea8:	1a 30 00 88 	store_32 s0, 12(s26)
c0006eac:	1f 00 00 f6 	b 124 <create_vm_area+0x3C4>
c0006eb0:	01 04 00 05 	add_i s0, s1, 1
c0006eb4:	00 80 6d c0 	sub_i s0, s0, s27
c0006eb8:	00 00 8d c1 	cmplt_u s0, s0, s26
c0006ebc:	20 ec ff f5 	bnz s0, -636 <create_vm_area+0xDC>
c0006ec0:	04 00 c0 4f 	movehi s0, 393220
c0006ec4:	9e 90 00 88 	store_32 s4, 36(sp)
c0006ec8:	fe 80 00 88 	store_32 s7, 32(sp)
c0006ecc:	20 83 f4 c0 	move s25, s9
c0006ed0:	00 a0 41 00 	or s0, s0, 4200
c0006ed4:	11 f3 ff f9 	call -13244 <slab_alloc>
c0006ed8:	40 80 fc c0 	move s2, s25
c0006edc:	3a 80 5d c0 	add_i s1, s26, s27
c0006ee0:	40 03 f0 c0 	move s26, s0
c0006ee4:	01 fc ff 05 	add_i s0, s1, -1
c0006ee8:	7a 23 00 88 	store_32 s27, 8(s26)
c0006eec:	1a 30 00 88 	store_32 s0, 12(s26)
c0006ef0:	38 00 00 a8 	load_32 s1, (s24)
c0006ef4:	1a 10 00 05 	add_i s0, s26, 4
c0006ef8:	3a 00 00 88 	store_32 s1, (s26)
c0006efc:	1a 13 00 88 	store_32 s24, 4(s26)
c0006f00:	1c 00 00 f6 	b 112 <create_vm_area+0x40C>
c0006f04:	fe 80 00 88 	store_32 s7, 32(sp)
c0006f08:	04 00 c0 4f 	movehi s0, 393220
c0006f0c:	40 83 f4 c0 	move s26, s9
c0006f10:	00 a0 41 00 	or s0, s0, 4200
c0006f14:	01 f3 ff f9 	call -13308 <slab_alloc>
c0006f18:	40 00 fd c0 	move s2, s26
c0006f1c:	40 03 f0 c0 	move s26, s0
c0006f20:	7a 23 00 88 	store_32 s27, 8(s26)
c0006f24:	1a 33 00 88 	store_32 s24, 12(s26)
c0006f28:	39 00 00 a8 	load_32 s1, (s25)
c0006f2c:	1a 10 00 05 	add_i s0, s26, 4
c0006f30:	3a 00 00 88 	store_32 s1, (s26)
c0006f34:	3a 13 00 88 	store_32 s25, 4(s26)
c0006f38:	0e 00 00 f6 	b 56 <create_vm_area+0x40C>
c0006f3c:	04 00 c0 4f 	movehi s0, 393220
c0006f40:	fe 80 00 88 	store_32 s7, 32(sp)
c0006f44:	20 83 f4 c0 	move s25, s9
c0006f48:	00 a0 41 00 	or s0, s0, 4200
c0006f4c:	f3 f2 ff f9 	call -13364 <slab_alloc>
c0006f50:	40 80 fc c0 	move s2, s25
c0006f54:	40 03 f0 c0 	move s26, s0
c0006f58:	7a 23 00 88 	store_32 s27, 8(s26)
c0006f5c:	1a 10 00 05 	add_i s0, s26, 4
c0006f60:	1a 33 00 88 	store_32 s24, 12(s26)
c0006f64:	3c 00 00 a8 	load_32 s1, (s28)
c0006f68:	3a 00 00 88 	store_32 s1, (s26)
c0006f6c:	9a 13 00 88 	store_32 s28, 4(s26)
c0006f70:	81 13 00 05 	add_i s28, s1, 4
c0006f74:	5c 03 00 88 	store_32 s26, (s28)
c0006f78:	00 00 00 a8 	load_32 s0, (s0)
c0006f7c:	40 03 00 88 	store_32 s26, (s0)
c0006f80:	20 00 f1 c0 	move s1, s2
c0006f84:	1a e6 ff f3 	bz s26, -832 <create_vm_area+0xE0>
c0006f88:	3e 90 00 a8 	load_32 s1, 36(sp)
c0006f8c:	1a 80 00 05 	add_i s0, s26, 32
c0006f90:	40 80 00 0f 	move s2, 32
c0006f94:	b8 ee ff f9 	call -17696 <strlcpy>
c0006f98:	1e 80 00 a8 	load_32 s0, 32(sp)
c0006f9c:	1a 70 00 88 	store_32 s0, 28(s26)
c0006fa0:	00 00 00 0f 	move s0, 0
c0006fa4:	1a 40 00 88 	store_32 s0, 16(s26)
c0006fa8:	1a 50 00 88 	store_32 s0, 20(s26)
c0006fac:	1a 60 00 88 	store_32 s0, 24(s26)
c0006fb0:	20 00 fd c0 	move s1, s26
c0006fb4:	24 ff ff f7 	b -880 <create_vm_area+0xE0>
c0006fb8:	68 ff ff 05 	add_i s27, s8, -1
c0006fbc:	60 04 00 0f 	move s3, 1
c0006fc0:	43 00 61 c0 	sub_i s2, s3, s2
c0006fc4:	42 80 5d c0 	add_i s2, s2, s27
c0006fc8:	42 00 8d c1 	cmplt_u s2, s2, s26
c0006fcc:	c2 e3 ff f5 	bnz s2, -904 <create_vm_area+0xE0>
c0006fd0:	80 33 00 05 	add_i s28, s0, 12
c0006fd4:	04 00 c0 4f 	movehi s0, 393220
c0006fd8:	23 00 6d c0 	sub_i s1, s3, s26
c0006fdc:	40 83 f4 c0 	move s26, s9
c0006fe0:	00 a0 41 00 	or s0, s0, 4200
c0006fe4:	21 83 5d c0 	add_i s25, s1, s27
c0006fe8:	cc f2 ff f9 	call -13520 <slab_alloc>
c0006fec:	40 00 fd c0 	move s2, s26
c0006ff0:	40 03 f0 c0 	move s26, s0
c0006ff4:	3a 23 00 88 	store_32 s25, 8(s26)
c0006ff8:	1a 10 00 05 	add_i s0, s26, 4
c0006ffc:	7a 33 00 88 	store_32 s27, 12(s26)
c0007000:	1a 03 00 88 	store_32 s24, (s26)
c0007004:	3c 00 00 a8 	load_32 s1, (s28)
c0007008:	3a 10 00 88 	store_32 s1, 4(s26)
c000700c:	da ff ff f7 	b -152 <create_vm_area+0x410>

destroy_vm_area:
c0007010:	de 03 ff 05 	add_i sp, sp, -64
c0007014:	fe f3 00 88 	store_32 ra, 60(sp)
c0007018:	20 00 f0 c0 	move s1, s0
c000701c:	01 10 00 a8 	load_32 s0, 4(s1)
c0007020:	41 00 00 a8 	load_32 s2, (s1)
c0007024:	02 10 00 88 	store_32 s0, 4(s2)
c0007028:	01 10 00 a8 	load_32 s0, 4(s1)
c000702c:	40 00 00 88 	store_32 s2, (s0)
c0007030:	00 00 00 0f 	move s0, 0
c0007034:	01 10 00 88 	store_32 s0, 4(s1)
c0007038:	01 00 00 88 	store_32 s0, (s1)
c000703c:	04 00 c0 4f 	movehi s0, 393220
c0007040:	00 a0 41 00 	or s0, s0, 4200
c0007044:	f4 f2 ff f9 	call -13360 <slab_free>
c0007048:	fe f3 00 a8 	load_32 ra, 60(sp)
c000704c:	de 03 01 05 	add_i sp, sp, 64
c0007050:	1f 00 00 f0 	ret

first_area:
c0007054:	20 00 f0 c0 	move s1, s0
c0007058:	01 30 00 a8 	load_32 s0, 12(s1)
c000705c:	21 20 00 05 	add_i s1, s1, 8
c0007060:	20 80 00 c1 	cmpeq_i s1, s0, s1
c0007064:	41 00 00 f4 	bnz s1, 8 <first_area+0x18>
c0007068:	02 00 00 f6 	b 8 <first_area+0x1C>
c000706c:	00 00 00 0f 	move s0, 0
c0007070:	1f 00 00 f0 	ret

lookup_area:
c0007074:	40 30 00 a8 	load_32 s2, 12(s0)
c0007078:	60 20 00 05 	add_i s3, s0, 8
c000707c:	00 00 00 0f 	move s0, 0
c0007080:	82 80 01 c1 	cmpeq_i s4, s2, s3
c0007084:	44 01 00 f4 	bnz s4, 40 <lookup_area+0x38>
c0007088:	82 20 00 a8 	load_32 s4, 8(s2)
c000708c:	84 80 60 c1 	cmpgt_u s4, s4, s1
c0007090:	84 00 00 f4 	bnz s4, 16 <lookup_area+0x2C>
c0007094:	82 30 00 a8 	load_32 s4, 12(s2)
c0007098:	84 80 70 c1 	cmpge_u s4, s4, s1
c000709c:	a4 00 00 f4 	bnz s4, 20 <lookup_area+0x3C>
c00070a0:	42 10 00 a8 	load_32 s2, 4(s2)
c00070a4:	82 80 11 c1 	cmpne_i s4, s2, s3
c00070a8:	04 ff ff f5 	bnz s4, -32 <lookup_area+0x14>
c00070ac:	1f 00 00 f0 	ret
c00070b0:	00 00 f1 c0 	move s0, s2
c00070b4:	1f 00 00 f0 	ret

dump_area_map:
c00070b8:	de 03 fe 05 	add_i sp, sp, -128
c00070bc:	1e f3 01 88 	store_32 s24, 124(sp)
c00070c0:	3e e3 01 88 	store_32 s25, 120(sp)
c00070c4:	5e d3 01 88 	store_32 s26, 116(sp)
c00070c8:	7e c3 01 88 	store_32 s27, 112(sp)
c00070cc:	9e b3 01 88 	store_32 s28, 108(sp)
c00070d0:	fe a3 01 88 	store_32 ra, 104(sp)
c00070d4:	00 03 f0 c0 	move s24, s0
c00070d8:	00 00 c0 4f 	movehi s0, 393216
c00070dc:	00 f0 1d 00 	or s0, s0, 1916
c00070e0:	1e 00 00 88 	store_32 s0, (sp)
c00070e4:	61 ec ff f9 	call -20092 <kprintf>
c00070e8:	38 33 00 a8 	load_32 s25, 12(s24)
c00070ec:	18 23 00 05 	add_i s24, s24, 8
c00070f0:	19 00 0c c1 	cmpeq_i s0, s25, s24
c00070f4:	e0 04 00 f4 	bnz s0, 156 <dump_area_map+0xD8>
c00070f8:	00 c0 01 0f 	move s0, 112
c00070fc:	1e 90 01 88 	store_32 s0, 100(sp)
c0007100:	00 00 c0 4f 	movehi s0, 393216
c0007104:	60 b7 00 0f 	move s27, 45
c0007108:	40 e3 01 0f 	move s26, 120
c000710c:	80 ab 1e 00 	or s28, s0, 1962
c0007110:	20 dc 01 0f 	move s1, 119
c0007114:	3e 80 01 88 	store_32 s1, 96(sp)
c0007118:	19 20 00 a8 	load_32 s0, 8(s25)
c000711c:	59 30 00 a8 	load_32 s2, 12(s25)
c0007120:	99 70 00 a8 	load_32 s4, 28(s25)
c0007124:	24 04 00 01 	and s1, s4, 1
c0007128:	61 00 00 10 	cmpeq_i s3, s1, 0
c000712c:	20 80 fd c0 	move s1, s27
c0007130:	43 00 00 f4 	bnz s3, 8 <dump_area_map+0x80>
c0007134:	3e 90 01 a8 	load_32 s1, 100(sp)
c0007138:	64 08 00 01 	and s3, s4, 2
c000713c:	a3 00 00 10 	cmpeq_i s5, s3, 0
c0007140:	60 80 fd c0 	move s3, s27
c0007144:	45 00 00 f4 	bnz s5, 8 <dump_area_map+0x94>
c0007148:	7e 80 01 a8 	load_32 s3, 96(sp)
c000714c:	84 10 00 01 	and s4, s4, 4
c0007150:	b9 80 00 05 	add_i s5, s25, 32
c0007154:	c4 00 00 10 	cmpeq_i s6, s4, 0
c0007158:	80 80 fd c0 	move s4, s27
c000715c:	46 00 00 f4 	bnz s6, 8 <dump_area_map+0xAC>
c0007160:	80 00 fd c0 	move s4, s26
c0007164:	5e 30 00 88 	store_32 s2, 12(sp)
c0007168:	1e 20 00 88 	store_32 s0, 8(sp)
c000716c:	be 10 00 88 	store_32 s5, 4(sp)
c0007170:	9e 03 00 88 	store_32 s28, (sp)
c0007174:	9e 60 00 88 	store_32 s4, 24(sp)
c0007178:	7e 50 00 88 	store_32 s3, 20(sp)
c000717c:	3e 40 00 88 	store_32 s1, 16(sp)
c0007180:	3a ec ff f9 	call -20248 <kprintf>
c0007184:	39 13 00 a8 	load_32 s25, 4(s25)
c0007188:	19 00 1c c1 	cmpne_i s0, s25, s24
c000718c:	60 fc ff f5 	bnz s0, -116 <dump_area_map+0x60>
c0007190:	fe a3 01 a8 	load_32 ra, 104(sp)
c0007194:	9e b3 01 a8 	load_32 s28, 108(sp)
c0007198:	7e c3 01 a8 	load_32 s27, 112(sp)
c000719c:	5e d3 01 a8 	load_32 s26, 116(sp)
c00071a0:	3e e3 01 a8 	load_32 s25, 120(sp)
c00071a4:	1e f3 01 a8 	load_32 s24, 124(sp)
c00071a8:	de 03 02 05 	add_i sp, sp, 128
c00071ac:	1f 00 00 f0 	ret

get_kernel_address_space:
c00071b0:	04 00 c0 4f 	movehi s0, 393220
c00071b4:	00 e0 49 00 	or s0, s0, 4728
c00071b8:	1f 00 00 f0 	ret

vm_address_space_init:
c00071bc:	de 03 ff 05 	add_i sp, sp, -64
c00071c0:	1e f3 00 88 	store_32 s24, 60(sp)
c00071c4:	3e e3 00 88 	store_32 s25, 56(sp)
c00071c8:	5e d3 00 88 	store_32 s26, 52(sp)
c00071cc:	7e c3 00 88 	store_32 s27, 48(sp)
c00071d0:	9e b3 00 88 	store_32 s28, 44(sp)
c00071d4:	fe a3 00 88 	store_32 ra, 40(sp)
c00071d8:	24 00 c0 4f 	movehi s1, 393220
c00071dc:	01 e3 49 00 	or s24, s1, 4728
c00071e0:	18 b0 00 88 	store_32 s0, 44(s24)
c00071e4:	00 00 fc c0 	move s0, s24
c00071e8:	42 ee ff f9 	call -18168 <init_rwlock>
c00071ec:	18 73 00 05 	add_i s24, s24, 28
c00071f0:	40 03 c0 4f 	movehi s26, 393216
c00071f4:	40 fc ff 0f 	move s2, -1
c00071f8:	00 00 fc c0 	move s0, s24
c00071fc:	20 00 fd c0 	move s1, s26
c0007200:	4f fe ff f9 	call -1732 <init_area_map>
c0007204:	04 00 c0 4f 	movehi s0, 393220
c0007208:	20 00 40 4f 	movehi s1, 131072
c000720c:	20 03 00 0f 	move s25, 0
c0007210:	00 80 55 00 	or s0, s0, 5472
c0007214:	a0 1c 00 0f 	move s5, 7
c0007218:	00 fc 3f 05 	add_i s0, s0, 4095
c000721c:	00 00 c0 01 	and s0, s0, -4096
c0007220:	40 80 50 c0 	add_i s2, s0, s1
c0007224:	00 00 c0 4f 	movehi s0, 393216
c0007228:	80 04 1f 00 	or s4, s0, 1985
c000722c:	00 00 fc c0 	move s0, s24
c0007230:	20 00 fd c0 	move s1, s26
c0007234:	60 80 fc c0 	move s3, s25
c0007238:	4b fe ff f9 	call -1748 <create_vm_area>
c000723c:	04 00 c0 4f 	movehi s0, 393220
c0007240:	40 0f 00 0f 	move s26, 3
c0007244:	20 00 c1 4f 	movehi s1, 395264
c0007248:	00 70 55 00 	or s0, s0, 5468
c000724c:	40 00 00 a8 	load_32 s2, (s0)
c0007250:	00 00 c0 4f 	movehi s0, 393216
c0007254:	80 20 1f 00 	or s4, s0, 1992
c0007258:	00 00 fc c0 	move s0, s24
c000725c:	60 80 fc c0 	move s3, s25
c0007260:	a0 00 fd c0 	move s5, s26
c0007264:	40 fe ff f9 	call -1792 <create_vm_area>
c0007268:	00 00 c0 4f 	movehi s0, 393216
c000726c:	20 00 d0 4f 	movehi s1, 425984
c0007270:	40 00 01 4f 	movehi s2, 2048
c0007274:	80 54 1f 00 	or s4, s0, 2005
c0007278:	00 00 fc c0 	move s0, s24
c000727c:	60 80 fc c0 	move s3, s25
c0007280:	a0 00 fd c0 	move s5, s26
c0007284:	38 fe ff f9 	call -1824 <create_vm_area>
c0007288:	00 00 c0 4f 	movehi s0, 393216
c000728c:	38 fc ff 4f 	movehi s1, 524280
c0007290:	48 00 00 4f 	movehi s2, 8
c0007294:	80 84 1f 00 	or s4, s0, 2017
c0007298:	00 00 fc c0 	move s0, s24
c000729c:	60 80 fc c0 	move s3, s25
c00072a0:	a0 00 fd c0 	move s5, s26
c00072a4:	30 fe ff f9 	call -1856 <create_vm_area>
c00072a8:	00 00 c0 4f 	movehi s0, 393216
c00072ac:	82 03 00 4f 	movehi s28, 2
c00072b0:	30 fc ff 4f 	movehi s1, 524272
c00072b4:	60 2b 0d 00 	or s27, s0, 842
c00072b8:	00 00 fc c0 	move s0, s24
c00072bc:	40 00 fe c0 	move s2, s28
c00072c0:	60 80 fc c0 	move s3, s25
c00072c4:	80 80 fd c0 	move s4, s27
c00072c8:	a0 00 fd c0 	move s5, s26
c00072cc:	26 fe ff f9 	call -1896 <create_vm_area>
c00072d0:	00 00 fc c0 	move s0, s24
c00072d4:	40 00 fe c0 	move s2, s28
c00072d8:	60 80 fc c0 	move s3, s25
c00072dc:	80 80 fd c0 	move s4, s27
c00072e0:	32 fc ff 4f 	movehi s1, 524274
c00072e4:	a0 00 fd c0 	move s5, s26
c00072e8:	1f fe ff f9 	call -1924 <create_vm_area>
c00072ec:	00 00 fc c0 	move s0, s24
c00072f0:	40 00 fe c0 	move s2, s28
c00072f4:	60 80 fc c0 	move s3, s25
c00072f8:	80 80 fd c0 	move s4, s27
c00072fc:	34 fc ff 4f 	movehi s1, 524276
c0007300:	a0 00 fd c0 	move s5, s26
c0007304:	18 fe ff f9 	call -1952 <create_vm_area>
c0007308:	00 00 fc c0 	move s0, s24
c000730c:	40 00 fe c0 	move s2, s28
c0007310:	60 80 fc c0 	move s3, s25
c0007314:	80 80 fd c0 	move s4, s27
c0007318:	36 fc ff 4f 	movehi s1, 524278
c000731c:	a0 00 fd c0 	move s5, s26
c0007320:	11 fe ff f9 	call -1980 <create_vm_area>
c0007324:	fe a3 00 a8 	load_32 ra, 40(sp)
c0007328:	9e b3 00 a8 	load_32 s28, 44(sp)
c000732c:	7e c3 00 a8 	load_32 s27, 48(sp)
c0007330:	5e d3 00 a8 	load_32 s26, 52(sp)
c0007334:	3e e3 00 a8 	load_32 s25, 56(sp)
c0007338:	1e f3 00 a8 	load_32 s24, 60(sp)
c000733c:	de 03 01 05 	add_i sp, sp, 64
c0007340:	1f 00 00 f0 	ret

create_address_space:
c0007344:	de 03 ff 05 	add_i sp, sp, -64
c0007348:	1e f3 00 88 	store_32 s24, 60(sp)
c000734c:	fe e3 00 88 	store_32 ra, 56(sp)
c0007350:	04 00 c0 4f 	movehi s0, 393220
c0007354:	00 00 42 00 	or s0, s0, 4224
c0007358:	f0 f1 ff f9 	call -14400 <slab_alloc>
c000735c:	00 03 f0 c0 	move s24, s0
c0007360:	3f fc bf 4f 	movehi s1, 393215
c0007364:	18 70 00 05 	add_i s0, s24, 28
c0007368:	41 fc 7f 00 	or s2, s1, 8191
c000736c:	20 00 40 0f 	move s1, 4096
c0007370:	f3 fd ff f9 	call -2100 <init_area_map>
c0007374:	6a fb ff f9 	call -4696 <create_translation_map>
c0007378:	18 b0 00 88 	store_32 s0, 44(s24)
c000737c:	00 00 fc c0 	move s0, s24
c0007380:	dc ed ff f9 	call -18576 <init_rwlock>
c0007384:	00 00 fc c0 	move s0, s24
c0007388:	fe e3 00 a8 	load_32 ra, 56(sp)
c000738c:	1e f3 00 a8 	load_32 s24, 60(sp)
c0007390:	de 03 01 05 	add_i sp, sp, 64
c0007394:	1f 00 00 f0 	ret

destroy_address_space:
c0007398:	de 03 ff 05 	add_i sp, sp, -64
c000739c:	1e f3 00 88 	store_32 s24, 60(sp)
c00073a0:	3e e3 00 88 	store_32 s25, 56(sp)
c00073a4:	5e d3 00 88 	store_32 s26, 52(sp)
c00073a8:	fe c3 00 88 	store_32 ra, 48(sp)
c00073ac:	00 03 f0 c0 	move s24, s0
c00073b0:	38 73 00 05 	add_i s25, s24, 28
c00073b4:	00 80 fc c0 	move s0, s25
c00073b8:	27 ff ff f9 	call -868 <first_area>
c00073bc:	40 03 f0 c0 	move s26, s0
c00073c0:	5a 01 00 f2 	bz s26, 40 <destroy_address_space+0x50>
c00073c4:	1a 40 00 a8 	load_32 s0, 16(s26)
c00073c8:	40 00 00 f2 	bz s0, 8 <destroy_address_space+0x38>
c00073cc:	bd 02 00 f8 	call 2804 <dec_cache_ref>
c00073d0:	00 00 fd c0 	move s0, s26
c00073d4:	0f ff ff f9 	call -964 <destroy_vm_area>
c00073d8:	00 80 fc c0 	move s0, s25
c00073dc:	1e ff ff f9 	call -904 <first_area>
c00073e0:	40 03 f0 c0 	move s26, s0
c00073e4:	1a ff ff f5 	bnz s26, -32 <destroy_address_space+0x2C>
c00073e8:	18 b0 00 a8 	load_32 s0, 44(s24)
c00073ec:	8f fb ff f9 	call -4548 <destroy_translation_map>
c00073f0:	fe c3 00 a8 	load_32 ra, 48(sp)
c00073f4:	5e d3 00 a8 	load_32 s26, 52(sp)
c00073f8:	3e e3 00 a8 	load_32 s25, 56(sp)
c00073fc:	1e f3 00 a8 	load_32 s24, 60(sp)
c0007400:	de 03 01 05 	add_i sp, sp, 64
c0007404:	1f 00 00 f0 	ret

create_area:
c0007408:	de 03 fe 05 	add_i sp, sp, -128
c000740c:	1e f3 01 88 	store_32 s24, 124(sp)
c0007410:	3e e3 01 88 	store_32 s25, 120(sp)
c0007414:	5e d3 01 88 	store_32 s26, 116(sp)
c0007418:	7e c3 01 88 	store_32 s27, 112(sp)
c000741c:	9e b3 01 88 	store_32 s28, 108(sp)
c0007420:	fe a3 01 88 	store_32 ra, 104(sp)
c0007424:	fe 70 01 88 	store_32 s7, 92(sp)
c0007428:	60 03 f3 c0 	move s27, s6
c000742c:	40 83 f2 c0 	move s26, s5
c0007430:	9e 90 01 88 	store_32 s4, 100(sp)
c0007434:	7e 80 01 88 	store_32 s3, 96(sp)
c0007438:	80 03 f1 c0 	move s28, s2
c000743c:	20 83 f0 c0 	move s25, s1
c0007440:	00 03 f0 c0 	move s24, s0
c0007444:	5b 00 00 f4 	bnz s27, 8 <create_area+0x44>
c0007448:	04 00 00 f6 	b 16 <create_area+0x50>
c000744c:	00 80 fd c0 	move s0, s27
c0007450:	62 02 00 f8 	call 2440 <inc_cache_ref>
c0007454:	04 00 00 f6 	b 16 <create_area+0x5C>
c0007458:	00 00 00 0f 	move s0, 0
c000745c:	48 02 00 f8 	call 2336 <create_vm_cache>
c0007460:	60 03 f0 c0 	move s27, s0
c0007464:	00 00 fc c0 	move s0, s24
c0007468:	49 ee ff f9 	call -18140 <rwlock_lock_write>
c000746c:	20 80 fc c0 	move s1, s25
c0007470:	40 00 fe c0 	move s2, s28
c0007474:	7e 80 01 a8 	load_32 s3, 96(sp)
c0007478:	9e 90 01 a8 	load_32 s4, 100(sp)
c000747c:	18 70 00 05 	add_i s0, s24, 28
c0007480:	a0 00 fd c0 	move s5, s26
c0007484:	b8 fd ff f9 	call -2336 <create_vm_area>
c0007488:	20 03 f0 c0 	move s25, s0
c000748c:	59 00 00 f4 	bnz s25, 8 <create_area+0x8C>
c0007490:	18 00 00 f6 	b 96 <create_area+0xE8>
c0007494:	79 43 00 88 	store_32 s27, 16(s25)
c0007498:	1e 70 01 a8 	load_32 s0, 92(sp)
c000749c:	19 50 00 88 	store_32 s0, 20(s25)
c00074a0:	1a 04 00 01 	and s0, s26, 1
c00074a4:	99 63 00 88 	store_32 s28, 24(s25)
c00074a8:	c0 02 00 f2 	bz s0, 88 <create_area+0xF8>
c00074ac:	59 23 00 a8 	load_32 s26, 8(s25)
c00074b0:	19 30 00 a8 	load_32 s0, 12(s25)
c00074b4:	1a 00 70 c1 	cmpge_u s0, s26, s0
c00074b8:	40 02 00 f4 	bnz s0, 72 <create_area+0xF8>
c00074bc:	60 07 00 0f 	move s27, 1
c00074c0:	00 00 fc c0 	move s0, s24
c00074c4:	20 80 fc c0 	move s1, s25
c00074c8:	40 00 fd c0 	move s2, s26
c00074cc:	60 80 fd c0 	move s3, s27
c00074d0:	1b 00 00 f8 	call 108 <soft_fault>
c00074d4:	40 00 00 f4 	bnz s0, 8 <create_area+0xD4>
c00074d8:	15 00 00 f6 	b 84 <create_area+0x124>
c00074dc:	19 30 00 a8 	load_32 s0, 12(s25)
c00074e0:	5a 03 40 05 	add_i s26, s26, 4096
c00074e4:	1a 00 70 c1 	cmpge_u s0, s26, s0
c00074e8:	c0 00 00 f4 	bnz s0, 24 <create_area+0xF8>
c00074ec:	f5 ff ff f7 	b -44 <create_area+0xB8>
c00074f0:	00 00 c0 4f 	movehi s0, 393216
c00074f4:	00 c8 1f 00 	or s0, s0, 2034
c00074f8:	1e 00 00 88 	store_32 s0, (sp)
c00074fc:	5b eb ff f9 	call -21140 <kprintf>
c0007500:	00 00 fc c0 	move s0, s24
c0007504:	73 ee ff f9 	call -17972 <rwlock_unlock_write>
c0007508:	00 80 fc c0 	move s0, s25
c000750c:	fe a3 01 a8 	load_32 ra, 104(sp)
c0007510:	9e b3 01 a8 	load_32 s28, 108(sp)
c0007514:	7e c3 01 a8 	load_32 s27, 112(sp)
c0007518:	5e d3 01 a8 	load_32 s26, 116(sp)
c000751c:	3e e3 01 a8 	load_32 s25, 120(sp)
c0007520:	1e f3 01 a8 	load_32 s24, 124(sp)
c0007524:	de 03 02 05 	add_i sp, sp, 128
c0007528:	1f 00 00 f0 	ret
c000752c:	00 00 c0 4f 	movehi s0, 393216
c0007530:	00 18 20 00 	or s0, s0, 2054
c0007534:	1e 00 00 88 	store_32 s0, (sp)
c0007538:	18 ed ff f9 	call -19360 <panic>

soft_fault:
c000753c:	de 03 fe 05 	add_i sp, sp, -128
c0007540:	1e f3 01 88 	store_32 s24, 124(sp)
c0007544:	3e e3 01 88 	store_32 s25, 120(sp)
c0007548:	5e d3 01 88 	store_32 s26, 116(sp)
c000754c:	7e c3 01 88 	store_32 s27, 112(sp)
c0007550:	9e b3 01 88 	store_32 s28, 108(sp)
c0007554:	fe a3 01 88 	store_32 ra, 104(sp)
c0007558:	40 03 f1 c0 	move s26, s2
c000755c:	60 83 f0 c0 	move s27, s1
c0007560:	a3 01 00 f2 	bz s3, 52 <soft_fault+0x58>
c0007564:	3b 70 00 a0 	load_u8 s1, 28(s27)
c0007568:	21 08 00 01 	and s1, s1, 2
c000756c:	41 01 00 f4 	bnz s1, 40 <soft_fault+0x58>
c0007570:	20 00 c0 4f 	movehi s1, 393216
c0007574:	5e 23 00 88 	store_32 s26, 8(sp)
c0007578:	1b 80 00 05 	add_i s0, s27, 32
c000757c:	1e 10 00 88 	store_32 s0, 4(sp)
c0007580:	01 94 20 00 	or s0, s1, 2085
c0007584:	1e 00 00 88 	store_32 s0, (sp)
c0007588:	38 eb ff f9 	call -21280 <kprintf>
c000758c:	00 03 00 0f 	move s24, 0
c0007590:	d0 00 00 f6 	b 832 <soft_fault+0x394>
c0007594:	7e 60 01 88 	store_32 s3, 88(sp)
c0007598:	1e 40 01 88 	store_32 s0, 80(sp)
c000759c:	3b 23 00 a8 	load_32 s25, 8(s27)
c00075a0:	1b 53 00 a8 	load_32 s24, 20(s27)
c00075a4:	47 ef ff f9 	call -17124 <disable_interrupts>
c00075a8:	1e 70 01 88 	store_32 s0, 92(sp)
c00075ac:	12 02 00 f8 	call 2120 <lock_vm_cache>
c00075b0:	7e 93 01 88 	store_32 s27, 100(sp)
c00075b4:	7b 43 00 a8 	load_32 s27, 16(s27)
c00075b8:	fb 19 00 f2 	bz s27, 828 <soft_fault+0x3B8>
c00075bc:	1a 80 6c c0 	sub_i s0, s26, s25
c00075c0:	5e 53 01 88 	store_32 s26, 84(sp)
c00075c4:	80 03 00 0f 	move s28, 0
c00075c8:	40 07 00 0f 	move s26, 1
c00075cc:	00 00 c0 01 	and s0, s0, -4096
c00075d0:	1e 30 01 88 	store_32 s0, 76(sp)
c00075d4:	9e 83 01 88 	store_32 s28, 96(sp)
c00075d8:	00 00 5c c0 	add_i s0, s0, s24
c00075dc:	00 03 c0 01 	and s24, s0, -4096
c00075e0:	00 80 fd c0 	move s0, s27
c00075e4:	20 00 fc c0 	move s1, s24
c00075e8:	12 03 00 f8 	call 3144 <lookup_cache_page>
c00075ec:	20 03 f0 c0 	move s25, s0
c00075f0:	19 04 00 f4 	bnz s25, 128 <soft_fault+0x134>
c00075f4:	1b 20 00 a8 	load_32 s0, 8(s27)
c00075f8:	40 00 00 f2 	bz s0, 8 <soft_fault+0xC4>
c00075fc:	34 00 00 f6 	b 208 <soft_fault+0x190>
c0007600:	1e 90 01 a8 	load_32 s0, 100(sp)
c0007604:	00 40 00 a8 	load_32 s0, 16(s0)
c0007608:	1b 00 10 c1 	cmpne_i s0, s27, s0
c000760c:	40 00 00 f4 	bnz s0, 8 <soft_fault+0xD8>
c0007610:	05 00 00 f6 	b 20 <soft_fault+0xE8>
c0007614:	7b 43 00 a8 	load_32 s27, 16(s27)
c0007618:	80 03 fd c0 	move s28, s26
c000761c:	3b fe ff f5 	bnz s27, -60 <soft_fault+0xA4>
c0007620:	0b 00 00 f6 	b 44 <soft_fault+0x110>
c0007624:	46 fc ff f9 	call -3816 <vm_allocate_page>
c0007628:	40 00 f0 c0 	move s2, s0
c000762c:	42 63 00 88 	store_32 s26, 24(s2)
c0007630:	00 80 fd c0 	move s0, s27
c0007634:	20 00 fc c0 	move s1, s24
c0007638:	5e 80 01 88 	store_32 s2, 96(sp)
c000763c:	be 02 00 f8 	call 2808 <insert_cache_page>
c0007640:	7b 43 00 a8 	load_32 s27, 16(s27)
c0007644:	80 03 fd c0 	move s28, s26
c0007648:	db fc ff f5 	bnz s27, -104 <soft_fault+0xA4>
c000764c:	5e 83 01 a8 	load_32 s26, 96(sp)
c0007650:	5a 00 00 f4 	bnz s26, 8 <soft_fault+0x11C>
c0007654:	ad 00 00 f6 	b 692 <soft_fault+0x3CC>
c0007658:	00 00 00 0f 	move s0, 0
c000765c:	1a 60 00 88 	store_32 s0, 24(s26)
c0007660:	7e 53 01 a8 	load_32 s27, 84(sp)
c0007664:	9e 43 01 a8 	load_32 s28, 80(sp)
c0007668:	1e 63 01 a8 	load_32 s24, 88(sp)
c000766c:	71 00 00 f6 	b 452 <soft_fault+0x2F4>
c0007670:	5e 83 01 a8 	load_32 s26, 96(sp)
c0007674:	1e 63 01 a8 	load_32 s24, 88(sp)
c0007678:	7c 0d 00 f2 	bz s28, 428 <soft_fault+0x2E8>
c000767c:	5a 00 00 f4 	bnz s26, 8 <soft_fault+0x148>
c0007680:	a5 00 00 f6 	b 660 <soft_fault+0x3D8>
c0007684:	7e 53 01 a8 	load_32 s27, 84(sp)
c0007688:	9e 43 01 a8 	load_32 s28, 80(sp)
c000768c:	58 07 00 f2 	bz s24, 232 <soft_fault+0x238>
c0007690:	00 00 fd c0 	move s0, s26
c0007694:	c3 fc ff f9 	call -3316 <page_to_pa>
c0007698:	40 03 c1 4f 	movehi s26, 395264
c000769c:	00 03 5d c0 	add_i s24, s0, s26
c00076a0:	00 80 fc c0 	move s0, s25
c00076a4:	bf fc ff f9 	call -3332 <page_to_pa>
c00076a8:	20 00 5d c0 	add_i s1, s0, s26
c00076ac:	5e 83 01 a8 	load_32 s26, 96(sp)
c00076b0:	00 00 fc c0 	move s0, s24
c00076b4:	1e 63 01 a8 	load_32 s24, 88(sp)
c00076b8:	40 00 40 0f 	move s2, 4096
c00076bc:	e4 ec ff f9 	call -19568 <memcpy>
c00076c0:	00 00 00 0f 	move s0, 0
c00076c4:	1a 60 00 88 	store_32 s0, 24(s26)
c00076c8:	5a 00 00 f6 	b 360 <soft_fault+0x2F4>
c00076cc:	1c fc ff f9 	call -3984 <vm_allocate_page>
c00076d0:	20 03 f0 c0 	move s25, s0
c00076d4:	00 04 00 0f 	move s0, 1
c00076d8:	19 60 00 88 	store_32 s0, 24(s25)
c00076dc:	00 80 fd c0 	move s0, s27
c00076e0:	20 00 fc c0 	move s1, s24
c00076e4:	40 80 fc c0 	move s2, s25
c00076e8:	93 02 00 f8 	call 2636 <insert_cache_page>
c00076ec:	d6 01 00 f8 	call 1880 <unlock_vm_cache>
c00076f0:	1e 70 01 a8 	load_32 s0, 92(sp)
c00076f4:	fb ee ff f9 	call -17428 <restore_interrupts>
c00076f8:	1e 90 01 a8 	load_32 s0, 100(sp)
c00076fc:	00 60 00 a8 	load_32 s0, 24(s0)
c0007700:	5e 30 01 a8 	load_32 s2, 76(sp)
c0007704:	20 00 81 c1 	cmplt_u s1, s0, s2
c0007708:	40 03 61 c0 	sub_i s26, s0, s2
c000770c:	c1 00 00 f4 	bnz s1, 24 <soft_fault+0x1E8>
c0007710:	1a fc 3f 16 	cmpgt_u s0, s26, 4095
c0007714:	40 00 00 f4 	bnz s0, 8 <soft_fault+0x1E0>
c0007718:	03 00 00 f6 	b 12 <soft_fault+0x1E8>
c000771c:	40 03 40 0f 	move s26, 4096
c0007720:	03 00 00 f6 	b 12 <soft_fault+0x1F0>
c0007724:	1a 04 00 14 	cmplt_i s0, s26, 1
c0007728:	80 05 00 f4 	bnz s0, 176 <soft_fault+0x29C>
c000772c:	7b 23 00 a8 	load_32 s27, 8(s27)
c0007730:	00 80 fc c0 	move s0, s25
c0007734:	9b fc ff f9 	call -3476 <page_to_pa>
c0007738:	20 00 c1 4f 	movehi s1, 395264
c000773c:	40 80 50 c0 	add_i s2, s0, s1
c0007740:	00 80 fd c0 	move s0, s27
c0007744:	20 00 fc c0 	move s1, s24
c0007748:	00 03 fd c0 	move s24, s26
c000774c:	60 00 fd c0 	move s3, s26
c0007750:	5d f7 ff f9 	call -8844 <read_file>
c0007754:	00 fc ff 12 	cmpgt_i s0, s0, -1
c0007758:	40 00 00 f4 	bnz s0, 8 <soft_fault+0x224>
c000775c:	0c 00 00 f6 	b 48 <soft_fault+0x250>
c0007760:	20 00 fc c0 	move s1, s24
c0007764:	5e 83 01 a8 	load_32 s26, 96(sp)
c0007768:	01 fc 3f 12 	cmpgt_i s0, s1, 4095
c000776c:	e0 04 00 f4 	bnz s0, 156 <soft_fault+0x2CC>
c0007770:	1c 00 00 f6 	b 112 <soft_fault+0x2A4>
c0007774:	00 00 fd c0 	move s0, s26
c0007778:	48 02 00 f8 	call 2336 <remove_cache_page>
c000777c:	00 00 fd c0 	move s0, s26
c0007780:	32 fc ff f9 	call -3896 <dec_page_ref>
c0007784:	40 83 fc c0 	move s26, s25
c0007788:	2a 00 00 f6 	b 168 <soft_fault+0x2F4>
c000778c:	00 00 c0 4f 	movehi s0, 393216
c0007790:	00 98 21 00 	or s0, s0, 2150
c0007794:	1e 00 00 88 	store_32 s0, (sp)
c0007798:	b4 ea ff f9 	call -21808 <kprintf>
c000779c:	00 80 fc c0 	move s0, s25
c00077a0:	2a fc ff f9 	call -3928 <dec_page_ref>
c00077a4:	3e 83 01 a8 	load_32 s25, 96(sp)
c00077a8:	00 03 00 0f 	move s24, 0
c00077ac:	39 09 00 f2 	bz s25, 292 <soft_fault+0x394>
c00077b0:	c4 ee ff f9 	call -17648 <disable_interrupts>
c00077b4:	90 01 00 f8 	call 1600 <lock_vm_cache>
c00077b8:	00 80 fc c0 	move s0, s25
c00077bc:	37 02 00 f8 	call 2268 <remove_cache_page>
c00077c0:	a1 01 00 f8 	call 1668 <unlock_vm_cache>
c00077c4:	1e 70 01 a8 	load_32 s0, 92(sp)
c00077c8:	c6 ee ff f9 	call -17640 <restore_interrupts>
c00077cc:	00 80 fc c0 	move s0, s25
c00077d0:	1e fc ff f9 	call -3976 <dec_page_ref>
c00077d4:	3f 00 00 f6 	b 252 <soft_fault+0x394>
c00077d8:	20 00 00 0f 	move s1, 0
c00077dc:	5e 83 01 a8 	load_32 s26, 96(sp)
c00077e0:	00 80 fc c0 	move s0, s25
c00077e4:	00 83 f0 c0 	move s24, s1
c00077e8:	6e fc ff f9 	call -3656 <page_to_pa>
c00077ec:	00 00 5c c0 	add_i s0, s0, s24
c00077f0:	20 00 40 0f 	move s1, 4096
c00077f4:	40 00 c1 4f 	movehi s2, 395264
c00077f8:	00 00 51 c0 	add_i s0, s0, s2
c00077fc:	41 00 6c c0 	sub_i s2, s1, s24
c0007800:	20 00 00 0f 	move s1, 0
c0007804:	78 ec ff f9 	call -20000 <memset>
c0007808:	ae ee ff f9 	call -17736 <disable_interrupts>
c000780c:	7a 01 00 f8 	call 1512 <lock_vm_cache>
c0007810:	00 00 00 0f 	move s0, 0
c0007814:	19 60 00 88 	store_32 s0, 24(s25)
c0007818:	1e 63 01 a8 	load_32 s24, 88(sp)
c000781c:	5c 00 00 f2 	bz s28, 8 <soft_fault+0x2E8>
c0007820:	97 ff ff f7 	b -420 <soft_fault+0x140>
c0007824:	40 83 fc c0 	move s26, s25
c0007828:	7e 53 01 a8 	load_32 s27, 84(sp)
c000782c:	9e 43 01 a8 	load_32 s28, 80(sp)
c0007830:	00 00 fd c0 	move s0, s26
c0007834:	fe fb ff f9 	call -4104 <inc_page_ref>
c0007838:	83 01 00 f8 	call 1548 <unlock_vm_cache>
c000783c:	1e 70 01 a8 	load_32 s0, 92(sp)
c0007840:	a8 ee ff f9 	call -17760 <restore_interrupts>
c0007844:	1a 60 00 a8 	load_32 s0, 24(s26)
c0007848:	80 00 00 f2 	bz s0, 16 <soft_fault+0x31C>
c000784c:	3b f3 ff f9 	call -13076 <reschedule>
c0007850:	1a 60 00 a8 	load_32 s0, 24(s26)
c0007854:	c0 ff ff f5 	bnz s0, -8 <soft_fault+0x310>
c0007858:	78 00 00 f2 	bz s24, 12 <soft_fault+0x328>
c000785c:	00 04 00 0f 	move s0, 1
c0007860:	1a 70 00 88 	store_32 s0, 28(s26)
c0007864:	1e 90 01 a8 	load_32 s0, 100(sp)
c0007868:	00 70 00 a8 	load_32 s0, 28(s0)
c000786c:	20 08 00 01 	and s1, s0, 2
c0007870:	e1 00 00 f2 	bz s1, 28 <soft_fault+0x350>
c0007874:	3a 70 00 a8 	load_32 s1, 28(s26)
c0007878:	21 00 0c c0 	or s1, s1, s24
c000787c:	21 00 00 10 	cmpeq_i s1, s1, 0
c0007880:	61 00 00 f4 	bnz s1, 12 <soft_fault+0x350>
c0007884:	20 0c 00 0f 	move s1, 3
c0007888:	02 00 00 f6 	b 8 <soft_fault+0x354>
c000788c:	20 04 00 0f 	move s1, 1
c0007890:	44 00 c0 4f 	movehi s2, 393220
c0007894:	00 10 00 01 	and s0, s0, 4
c0007898:	21 03 00 c0 	or s25, s1, s0
c000789c:	42 e0 49 00 	or s2, s2, 4728
c00078a0:	5c 00 01 c1 	cmpeq_i s2, s28, s2
c00078a4:	42 00 00 f4 	bnz s2, 8 <soft_fault+0x370>
c00078a8:	02 00 00 f6 	b 8 <soft_fault+0x374>
c00078ac:	39 63 00 00 	or s25, s25, 24
c00078b0:	1c b3 00 a8 	load_32 s24, 44(s28)
c00078b4:	00 00 fd c0 	move s0, s26
c00078b8:	3a fc ff f9 	call -3864 <page_to_pa>
c00078bc:	59 00 00 c0 	or s2, s25, s0
c00078c0:	00 00 fc c0 	move s0, s24
c00078c4:	20 80 fd c0 	move s1, s27
c00078c8:	93 fa ff f9 	call -5556 <vm_map_page>
c00078cc:	00 07 00 0f 	move s24, 1
c00078d0:	00 00 fc c0 	move s0, s24
c00078d4:	fe a3 01 a8 	load_32 ra, 104(sp)
c00078d8:	9e b3 01 a8 	load_32 s28, 108(sp)
c00078dc:	7e c3 01 a8 	load_32 s27, 112(sp)
c00078e0:	5e d3 01 a8 	load_32 s26, 116(sp)
c00078e4:	3e e3 01 a8 	load_32 s25, 120(sp)
c00078e8:	1e f3 01 a8 	load_32 s24, 124(sp)
c00078ec:	de 03 02 05 	add_i sp, sp, 128
c00078f0:	1f 00 00 f0 	ret
c00078f4:	00 00 c0 4f 	movehi s0, 393216
c00078f8:	20 40 04 0f 	move s1, 272
c00078fc:	3e 20 00 88 	store_32 s1, 8(sp)
c0007900:	00 68 21 00 	or s0, s0, 2138
c0007904:	08 00 00 f6 	b 32 <soft_fault+0x3E8>
c0007908:	00 00 c0 4f 	movehi s0, 393216
c000790c:	20 80 05 0f 	move s1, 352
c0007910:	03 00 00 f6 	b 12 <soft_fault+0x3E0>
c0007914:	00 00 c0 4f 	movehi s0, 393216
c0007918:	20 ac 05 0f 	move s1, 363
c000791c:	00 00 22 00 	or s0, s0, 2176
c0007920:	3e 20 00 88 	store_32 s1, 8(sp)
c0007924:	20 00 c0 4f 	movehi s1, 393216
c0007928:	1e 30 00 88 	store_32 s0, 12(sp)
c000792c:	00 00 c0 4f 	movehi s0, 393216
c0007930:	21 1c 21 00 	or s1, s1, 2119
c0007934:	3e 10 00 88 	store_32 s1, 4(sp)
c0007938:	00 e4 04 00 	or s0, s0, 313
c000793c:	1e 00 00 88 	store_32 s0, (sp)
c0007940:	16 ec ff f9 	call -20392 <panic>

map_contiguous_memory:
c0007944:	de 03 fe 05 	add_i sp, sp, -128
c0007948:	1e f3 01 88 	store_32 s24, 124(sp)
c000794c:	3e e3 01 88 	store_32 s25, 120(sp)
c0007950:	5e d3 01 88 	store_32 s26, 116(sp)
c0007954:	7e c3 01 88 	store_32 s27, 112(sp)
c0007958:	9e b3 01 88 	store_32 s28, 108(sp)
c000795c:	fe a3 01 88 	store_32 ra, 104(sp)
c0007960:	de 60 01 88 	store_32 s6, 88(sp)
c0007964:	00 83 f2 c0 	move s24, s5
c0007968:	9e 80 01 88 	store_32 s4, 96(sp)
c000796c:	7e 70 01 88 	store_32 s3, 92(sp)
c0007970:	40 03 f1 c0 	move s26, s2
c0007974:	60 83 f0 c0 	move s27, s1
c0007978:	20 03 f0 c0 	move s25, s0
c000797c:	98 07 00 00 	or s28, s24, 1
c0007980:	03 ed ff f9 	call -19444 <rwlock_lock_write>
c0007984:	20 80 fd c0 	move s1, s27
c0007988:	5e 93 01 88 	store_32 s26, 100(sp)
c000798c:	40 00 fd c0 	move s2, s26
c0007990:	7e 70 01 a8 	load_32 s3, 92(sp)
c0007994:	9e 80 01 a8 	load_32 s4, 96(sp)
c0007998:	19 70 00 05 	add_i s0, s25, 28
c000799c:	a0 00 fe c0 	move s5, s28
c00079a0:	71 fc ff f9 	call -3644 <create_vm_area>
c00079a4:	60 03 f0 c0 	move s27, s0
c00079a8:	5b 00 00 f4 	bnz s27, 8 <map_contiguous_memory+0x6C>
c00079ac:	0e 00 00 f6 	b 56 <map_contiguous_memory+0xA0>
c00079b0:	04 00 c0 4f 	movehi s0, 393220
c00079b4:	80 03 00 0f 	move s28, 0
c00079b8:	9b 43 00 88 	store_32 s28, 16(s27)
c00079bc:	00 e0 49 00 	or s0, s0, 4728
c00079c0:	39 00 00 c1 	cmpeq_i s1, s25, s0
c00079c4:	1b 70 00 a8 	load_32 s0, 28(s27)
c00079c8:	60 80 fc c0 	move s3, s25
c00079cc:	81 01 00 f4 	bnz s1, 48 <map_contiguous_memory+0xB8>
c00079d0:	5e 63 01 a8 	load_32 s26, 88(sp)
c00079d4:	20 04 00 0f 	move s1, 1
c00079d8:	5e 90 01 a8 	load_32 s2, 100(sp)
c00079dc:	82 03 00 f2 	bz s2, 112 <map_contiguous_memory+0x108>
c00079e0:	0b 00 00 f6 	b 44 <map_contiguous_memory+0xC8>
c00079e4:	00 00 c0 4f 	movehi s0, 393216
c00079e8:	00 c8 1f 00 	or s0, s0, 2034
c00079ec:	1e 00 00 88 	store_32 s0, (sp)
c00079f0:	1e ea ff f9 	call -22408 <kprintf>
c00079f4:	60 80 fc c0 	move s3, s25
c00079f8:	15 00 00 f6 	b 84 <map_contiguous_memory+0x108>
c00079fc:	5e 63 01 a8 	load_32 s26, 88(sp)
c0007a00:	20 64 00 0f 	move s1, 25
c0007a04:	5e 90 01 a8 	load_32 s2, 100(sp)
c0007a08:	22 02 00 f2 	bz s2, 68 <map_contiguous_memory+0x108>
c0007a0c:	58 08 00 01 	and s2, s24, 2
c0007a10:	00 10 00 01 	and s0, s0, 4
c0007a14:	02 00 00 c0 	or s0, s2, s0
c0007a18:	20 83 00 c0 	or s25, s0, s1
c0007a1c:	03 b0 00 a8 	load_32 s0, 44(s3)
c0007a20:	5c 00 5d c0 	add_i s2, s28, s26
c0007a24:	3b 20 00 a8 	load_32 s1, 8(s27)
c0007a28:	00 83 f1 c0 	move s24, s3
c0007a2c:	42 80 0c c0 	or s2, s2, s25
c0007a30:	21 00 5e c0 	add_i s1, s1, s28
c0007a34:	38 fa ff f9 	call -5920 <vm_map_page>
c0007a38:	60 00 fc c0 	move s3, s24
c0007a3c:	1e 90 01 a8 	load_32 s0, 100(sp)
c0007a40:	9c 03 40 05 	add_i s28, s28, 4096
c0007a44:	1c 00 80 c1 	cmplt_u s0, s28, s0
c0007a48:	a0 fe ff f5 	bnz s0, -44 <map_contiguous_memory+0xD8>
c0007a4c:	00 80 f1 c0 	move s0, s3
c0007a50:	20 ed ff f9 	call -19328 <rwlock_unlock_write>
c0007a54:	00 80 fd c0 	move s0, s27
c0007a58:	fe a3 01 a8 	load_32 ra, 104(sp)
c0007a5c:	9e b3 01 a8 	load_32 s28, 108(sp)
c0007a60:	7e c3 01 a8 	load_32 s27, 112(sp)
c0007a64:	5e d3 01 a8 	load_32 s26, 116(sp)
c0007a68:	3e e3 01 a8 	load_32 s25, 120(sp)
c0007a6c:	1e f3 01 a8 	load_32 s24, 124(sp)
c0007a70:	de 03 02 05 	add_i sp, sp, 128
c0007a74:	1f 00 00 f0 	ret

destroy_area:
c0007a78:	de 03 ff 05 	add_i sp, sp, -64
c0007a7c:	1e f3 00 88 	store_32 s24, 60(sp)
c0007a80:	3e e3 00 88 	store_32 s25, 56(sp)
c0007a84:	5e d3 00 88 	store_32 s26, 52(sp)
c0007a88:	7e c3 00 88 	store_32 s27, 48(sp)
c0007a8c:	fe b3 00 88 	store_32 ra, 44(sp)
c0007a90:	40 83 f0 c0 	move s26, s1
c0007a94:	20 03 f0 c0 	move s25, s0
c0007a98:	bd ec ff f9 	call -19724 <rwlock_lock_write>
c0007a9c:	1a 43 00 a8 	load_32 s24, 16(s26)
c0007aa0:	7a 23 00 a8 	load_32 s27, 8(s26)
c0007aa4:	1a 30 00 a8 	load_32 s0, 12(s26)
c0007aa8:	1b 00 70 c1 	cmpge_u s0, s27, s0
c0007aac:	80 01 00 f4 	bnz s0, 48 <destroy_area+0x64>
c0007ab0:	19 b0 00 a8 	load_32 s0, 44(s25)
c0007ab4:	20 80 fd c0 	move s1, s27
c0007ab8:	94 fa ff f9 	call -5552 <query_translation_map>
c0007abc:	20 04 00 01 	and s1, s0, 1
c0007ac0:	61 00 00 f2 	bz s1, 12 <destroy_area+0x54>
c0007ac4:	9c fb ff f9 	call -4496 <pa_to_page>
c0007ac8:	60 fb ff f9 	call -4736 <dec_page_ref>
c0007acc:	1a 30 00 a8 	load_32 s0, 12(s26)
c0007ad0:	7b 03 40 05 	add_i s27, s27, 4096
c0007ad4:	1b 00 80 c1 	cmplt_u s0, s27, s0
c0007ad8:	c0 fe ff f5 	bnz s0, -40 <destroy_area+0x38>
c0007adc:	00 00 fd c0 	move s0, s26
c0007ae0:	4c fd ff f9 	call -2768 <destroy_vm_area>
c0007ae4:	00 80 fc c0 	move s0, s25
c0007ae8:	fa ec ff f9 	call -19480 <rwlock_unlock_write>
c0007aec:	78 00 00 f2 	bz s24, 12 <destroy_area+0x80>
c0007af0:	00 00 fc c0 	move s0, s24
c0007af4:	f3 00 00 f8 	call 972 <dec_cache_ref>
c0007af8:	fe b3 00 a8 	load_32 ra, 44(sp)
c0007afc:	7e c3 00 a8 	load_32 s27, 48(sp)
c0007b00:	5e d3 00 a8 	load_32 s26, 52(sp)
c0007b04:	3e e3 00 a8 	load_32 s25, 56(sp)
c0007b08:	1e f3 00 a8 	load_32 s24, 60(sp)
c0007b0c:	de 03 01 05 	add_i sp, sp, 64
c0007b10:	1f 00 00 f0 	ret

handle_page_fault:
c0007b14:	de 03 ff 05 	add_i sp, sp, -64
c0007b18:	1e f3 00 88 	store_32 s24, 60(sp)
c0007b1c:	3e e3 00 88 	store_32 s25, 56(sp)
c0007b20:	5e d3 00 88 	store_32 s26, 52(sp)
c0007b24:	fe c3 00 88 	store_32 ra, 48(sp)
c0007b28:	5f fc bf 4f 	movehi s2, 393215
c0007b2c:	20 03 f0 c0 	move s25, s0
c0007b30:	40 83 f0 c0 	move s26, s1
c0007b34:	02 fc 7f 00 	or s0, s2, 8191
c0007b38:	19 00 60 c1 	cmpgt_u s0, s25, s0
c0007b3c:	40 00 00 f4 	bnz s0, 8 <handle_page_fault+0x30>
c0007b40:	04 00 00 f6 	b 16 <handle_page_fault+0x3C>
c0007b44:	04 00 c0 4f 	movehi s0, 393220
c0007b48:	00 e3 49 00 	or s24, s0, 4728
c0007b4c:	04 00 00 f6 	b 16 <handle_page_fault+0x48>
c0007b50:	2f f1 ff f9 	call -15172 <current_thread>
c0007b54:	00 90 00 a8 	load_32 s0, 36(s0)
c0007b58:	00 73 00 a8 	load_32 s24, 28(s0)
c0007b5c:	00 00 fc c0 	move s0, s24
c0007b60:	ee eb ff f9 	call -20552 <rwlock_lock_read>
c0007b64:	18 70 00 05 	add_i s0, s24, 28
c0007b68:	20 80 fc c0 	move s1, s25
c0007b6c:	42 fd ff f9 	call -2808 <lookup_area>
c0007b70:	20 00 f0 c0 	move s1, s0
c0007b74:	e1 00 00 f2 	bz s1, 28 <handle_page_fault+0x7C>
c0007b78:	00 00 fc c0 	move s0, s24
c0007b7c:	40 80 fc c0 	move s2, s25
c0007b80:	60 00 fd c0 	move s3, s26
c0007b84:	6e fe ff f9 	call -1608 <soft_fault>
c0007b88:	20 03 f0 c0 	move s25, s0
c0007b8c:	02 00 00 f6 	b 8 <handle_page_fault+0x80>
c0007b90:	20 03 00 0f 	move s25, 0
c0007b94:	00 00 fc c0 	move s0, s24
c0007b98:	37 ec ff f9 	call -20260 <rwlock_unlock_read>
c0007b9c:	00 80 fc c0 	move s0, s25
c0007ba0:	fe c3 00 a8 	load_32 ra, 48(sp)
c0007ba4:	5e d3 00 a8 	load_32 s26, 52(sp)
c0007ba8:	3e e3 00 a8 	load_32 s25, 56(sp)
c0007bac:	1e f3 00 a8 	load_32 s24, 60(sp)
c0007bb0:	de 03 01 05 	add_i sp, sp, 64
c0007bb4:	1f 00 00 f0 	ret

bootstrap_vm_cache:
c0007bb8:	04 00 c0 4f 	movehi s0, 393220
c0007bbc:	00 a0 4a 00 	or s0, s0, 4776
c0007bc0:	20 20 00 05 	add_i s1, s0, 8
c0007bc4:	00 10 00 88 	store_32 s0, 4(s0)
c0007bc8:	00 00 00 88 	store_32 s0, (s0)
c0007bcc:	20 30 00 88 	store_32 s1, 12(s0)
c0007bd0:	20 20 00 88 	store_32 s1, 8(s0)
c0007bd4:	20 40 00 05 	add_i s1, s0, 16
c0007bd8:	20 50 00 88 	store_32 s1, 20(s0)
c0007bdc:	20 40 00 88 	store_32 s1, 16(s0)
c0007be0:	20 60 00 05 	add_i s1, s0, 24
c0007be4:	20 70 00 88 	store_32 s1, 28(s0)
c0007be8:	20 60 00 88 	store_32 s1, 24(s0)
c0007bec:	20 80 00 05 	add_i s1, s0, 32
c0007bf0:	20 90 00 88 	store_32 s1, 36(s0)
c0007bf4:	20 80 00 88 	store_32 s1, 32(s0)
c0007bf8:	20 a0 00 05 	add_i s1, s0, 40
c0007bfc:	20 b0 00 88 	store_32 s1, 44(s0)
c0007c00:	20 a0 00 88 	store_32 s1, 40(s0)
c0007c04:	20 c0 00 05 	add_i s1, s0, 48
c0007c08:	20 d0 00 88 	store_32 s1, 52(s0)
c0007c0c:	20 c0 00 88 	store_32 s1, 48(s0)
c0007c10:	20 e0 00 05 	add_i s1, s0, 56
c0007c14:	20 f0 00 88 	store_32 s1, 60(s0)
c0007c18:	20 e0 00 88 	store_32 s1, 56(s0)
c0007c1c:	20 00 01 05 	add_i s1, s0, 64
c0007c20:	20 10 01 88 	store_32 s1, 68(s0)
c0007c24:	20 00 01 88 	store_32 s1, 64(s0)
c0007c28:	20 20 01 05 	add_i s1, s0, 72
c0007c2c:	20 30 01 88 	store_32 s1, 76(s0)
c0007c30:	20 20 01 88 	store_32 s1, 72(s0)
c0007c34:	20 40 01 05 	add_i s1, s0, 80
c0007c38:	20 50 01 88 	store_32 s1, 84(s0)
c0007c3c:	20 40 01 88 	store_32 s1, 80(s0)
c0007c40:	20 60 01 05 	add_i s1, s0, 88
c0007c44:	20 70 01 88 	store_32 s1, 92(s0)
c0007c48:	20 60 01 88 	store_32 s1, 88(s0)
c0007c4c:	20 80 01 05 	add_i s1, s0, 96
c0007c50:	20 90 01 88 	store_32 s1, 100(s0)
c0007c54:	20 80 01 88 	store_32 s1, 96(s0)
c0007c58:	20 a0 01 05 	add_i s1, s0, 104
c0007c5c:	20 b0 01 88 	store_32 s1, 108(s0)
c0007c60:	20 a0 01 88 	store_32 s1, 104(s0)
c0007c64:	20 c0 01 05 	add_i s1, s0, 112
c0007c68:	20 d0 01 88 	store_32 s1, 116(s0)
c0007c6c:	20 c0 01 88 	store_32 s1, 112(s0)
c0007c70:	20 e0 01 05 	add_i s1, s0, 120
c0007c74:	20 f0 01 88 	store_32 s1, 124(s0)
c0007c78:	20 e0 01 88 	store_32 s1, 120(s0)
c0007c7c:	20 00 02 05 	add_i s1, s0, 128
c0007c80:	20 10 02 88 	store_32 s1, 132(s0)
c0007c84:	20 00 02 88 	store_32 s1, 128(s0)
c0007c88:	20 20 02 05 	add_i s1, s0, 136
c0007c8c:	20 30 02 88 	store_32 s1, 140(s0)
c0007c90:	20 20 02 88 	store_32 s1, 136(s0)
c0007c94:	20 40 02 05 	add_i s1, s0, 144
c0007c98:	20 50 02 88 	store_32 s1, 148(s0)
c0007c9c:	20 40 02 88 	store_32 s1, 144(s0)
c0007ca0:	20 60 02 05 	add_i s1, s0, 152
c0007ca4:	20 70 02 88 	store_32 s1, 156(s0)
c0007ca8:	20 60 02 88 	store_32 s1, 152(s0)
c0007cac:	20 80 02 05 	add_i s1, s0, 160
c0007cb0:	20 90 02 88 	store_32 s1, 164(s0)
c0007cb4:	20 80 02 88 	store_32 s1, 160(s0)
c0007cb8:	20 a0 02 05 	add_i s1, s0, 168
c0007cbc:	20 b0 02 88 	store_32 s1, 172(s0)
c0007cc0:	20 a0 02 88 	store_32 s1, 168(s0)
c0007cc4:	20 c0 02 05 	add_i s1, s0, 176
c0007cc8:	20 d0 02 88 	store_32 s1, 180(s0)
c0007ccc:	20 c0 02 88 	store_32 s1, 176(s0)
c0007cd0:	20 e0 02 05 	add_i s1, s0, 184
c0007cd4:	20 f0 02 88 	store_32 s1, 188(s0)
c0007cd8:	20 e0 02 88 	store_32 s1, 184(s0)
c0007cdc:	20 00 03 05 	add_i s1, s0, 192
c0007ce0:	20 10 03 88 	store_32 s1, 196(s0)
c0007ce4:	20 00 03 88 	store_32 s1, 192(s0)
c0007ce8:	20 20 03 05 	add_i s1, s0, 200
c0007cec:	20 30 03 88 	store_32 s1, 204(s0)
c0007cf0:	20 20 03 88 	store_32 s1, 200(s0)
c0007cf4:	20 40 03 05 	add_i s1, s0, 208
c0007cf8:	20 50 03 88 	store_32 s1, 212(s0)
c0007cfc:	20 40 03 88 	store_32 s1, 208(s0)
c0007d00:	20 60 03 05 	add_i s1, s0, 216
c0007d04:	20 70 03 88 	store_32 s1, 220(s0)
c0007d08:	20 60 03 88 	store_32 s1, 216(s0)
c0007d0c:	20 80 03 05 	add_i s1, s0, 224
c0007d10:	20 90 03 88 	store_32 s1, 228(s0)
c0007d14:	20 80 03 88 	store_32 s1, 224(s0)
c0007d18:	20 a0 03 05 	add_i s1, s0, 232
c0007d1c:	20 b0 03 88 	store_32 s1, 236(s0)
c0007d20:	20 a0 03 88 	store_32 s1, 232(s0)
c0007d24:	20 c0 03 05 	add_i s1, s0, 240
c0007d28:	20 d0 03 88 	store_32 s1, 244(s0)
c0007d2c:	20 c0 03 88 	store_32 s1, 240(s0)
c0007d30:	20 e0 03 05 	add_i s1, s0, 248
c0007d34:	20 f0 03 88 	store_32 s1, 252(s0)
c0007d38:	20 e0 03 88 	store_32 s1, 248(s0)
c0007d3c:	20 00 04 05 	add_i s1, s0, 256
c0007d40:	20 10 04 88 	store_32 s1, 260(s0)
c0007d44:	20 00 04 88 	store_32 s1, 256(s0)
c0007d48:	20 20 04 05 	add_i s1, s0, 264
c0007d4c:	20 30 04 88 	store_32 s1, 268(s0)
c0007d50:	20 20 04 88 	store_32 s1, 264(s0)
c0007d54:	20 40 04 05 	add_i s1, s0, 272
c0007d58:	20 50 04 88 	store_32 s1, 276(s0)
c0007d5c:	20 40 04 88 	store_32 s1, 272(s0)
c0007d60:	20 60 04 05 	add_i s1, s0, 280
c0007d64:	20 70 04 88 	store_32 s1, 284(s0)
c0007d68:	20 60 04 88 	store_32 s1, 280(s0)
c0007d6c:	20 80 04 05 	add_i s1, s0, 288
c0007d70:	20 90 04 88 	store_32 s1, 292(s0)
c0007d74:	20 80 04 88 	store_32 s1, 288(s0)
c0007d78:	1f 00 00 f0 	ret

create_vm_cache:
c0007d7c:	de 03 ff 05 	add_i sp, sp, -64
c0007d80:	1e f3 00 88 	store_32 s24, 60(sp)
c0007d84:	fe e3 00 88 	store_32 ra, 56(sp)
c0007d88:	00 03 f0 c0 	move s24, s0
c0007d8c:	04 00 c0 4f 	movehi s0, 393220
c0007d90:	00 60 42 00 	or s0, s0, 4248
c0007d94:	61 ef ff f9 	call -17020 <slab_alloc>
c0007d98:	00 10 00 88 	store_32 s0, 4(s0)
c0007d9c:	20 04 00 0f 	move s1, 1
c0007da0:	00 00 00 88 	store_32 s0, (s0)
c0007da4:	20 30 00 88 	store_32 s1, 12(s0)
c0007da8:	00 43 00 88 	store_32 s24, 16(s0)
c0007dac:	f8 00 00 f2 	bz s24, 28 <create_vm_cache+0x4C>
c0007db0:	38 30 00 05 	add_i s1, s24, 12
c0007db4:	41 00 00 aa 	load_sync s2, (s1)
c0007db8:	62 04 00 05 	add_i s3, s2, 1
c0007dbc:	40 00 f1 c0 	move s2, s2
c0007dc0:	61 00 00 8a 	store_sync s3, (s1)  
c0007dc4:	83 ff ff f3 	bz s3, -16 <create_vm_cache+0x38>
c0007dc8:	fe e3 00 a8 	load_32 ra, 56(sp)
c0007dcc:	1e f3 00 a8 	load_32 s24, 60(sp)
c0007dd0:	de 03 01 05 	add_i sp, sp, 64
c0007dd4:	1f 00 00 f0 	ret

inc_cache_ref:
c0007dd8:	00 30 00 05 	add_i s0, s0, 12
c0007ddc:	20 00 00 aa 	load_sync s1, (s0)
c0007de0:	41 04 00 05 	add_i s2, s1, 1
c0007de4:	20 80 f0 c0 	move s1, s1
c0007de8:	40 00 00 8a 	store_sync s2, (s0)  
c0007dec:	82 ff ff f3 	bz s2, -16 <inc_cache_ref+0x4>
c0007df0:	1f 00 00 f0 	ret

lock_vm_cache:
c0007df4:	04 00 c0 4f 	movehi s0, 393220
c0007df8:	20 04 00 0f 	move s1, 1
c0007dfc:	40 00 00 0f 	move s2, 0
c0007e00:	00 40 4f 00 	or s0, s0, 5072
c0007e04:	60 00 00 a8 	load_32 s3, (s0)
c0007e08:	e3 ff ff f5 	bnz s3, -4 <lock_vm_cache+0x10>
c0007e0c:	60 00 00 aa 	load_sync s3, (s0)
c0007e10:	83 00 11 c1 	cmpne_i s4, s3, s2
c0007e14:	84 00 00 f4 	bnz s4, 16 <lock_vm_cache+0x30>
c0007e18:	80 80 f0 c0 	move s4, s1
c0007e1c:	80 00 00 8a 	store_sync s4, (s0)  
c0007e20:	64 ff ff f3 	bz s4, -20 <lock_vm_cache+0x18>
c0007e24:	63 00 00 10 	cmpeq_i s3, s3, 0
c0007e28:	63 04 00 01 	and s3, s3, 1
c0007e2c:	c3 fe ff f3 	bz s3, -40 <lock_vm_cache+0x10>
c0007e30:	04 00 c0 4f 	movehi s0, 393220
c0007e34:	20 00 00 ac 	getcr s1, 0
c0007e38:	00 c0 42 00 	or s0, s0, 4272
c0007e3c:	20 00 00 88 	store_32 s1, (s0)
c0007e40:	1f 00 00 f0 	ret

unlock_vm_cache:
c0007e44:	de 03 fe 05 	add_i sp, sp, -128
c0007e48:	fe f3 01 88 	store_32 ra, 124(sp)
c0007e4c:	04 00 c0 4f 	movehi s0, 393220
c0007e50:	00 c0 42 00 	or s0, s0, 4272
c0007e54:	20 00 00 a8 	load_32 s1, (s0)
c0007e58:	40 00 00 ac 	getcr s2, 0
c0007e5c:	21 00 01 c1 	cmpeq_i s1, s1, s2
c0007e60:	41 00 00 f4 	bnz s1, 8 <unlock_vm_cache+0x24>
c0007e64:	0b 00 00 f6 	b 44 <unlock_vm_cache+0x4C>
c0007e68:	24 00 c0 4f 	movehi s1, 393220
c0007e6c:	40 fc ff 0f 	move s2, -1
c0007e70:	40 00 00 88 	store_32 s2, (s0)
c0007e74:	00 00 00 0f 	move s0, 0
c0007e78:	21 40 4f 00 	or s1, s1, 5072
c0007e7c:	01 00 00 88 	store_32 s0, (s1)
c0007e80:	00 00 00 e8 	membar
c0007e84:	fe f3 01 a8 	load_32 ra, 124(sp)
c0007e88:	de 03 02 05 	add_i sp, sp, 128
c0007e8c:	1f 00 00 f0 	ret
c0007e90:	00 00 c0 4f 	movehi s0, 393216
c0007e94:	20 08 01 0f 	move s1, 66
c0007e98:	3e 20 00 88 	store_32 s1, 8(sp)
c0007e9c:	20 00 c0 4f 	movehi s1, 393216
c0007ea0:	00 6c 22 00 	or s0, s0, 2203
c0007ea4:	1e 30 00 88 	store_32 s0, 12(sp)
c0007ea8:	00 00 c0 4f 	movehi s0, 393216
c0007eac:	21 40 22 00 	or s1, s1, 2192
c0007eb0:	3e 10 00 88 	store_32 s1, 4(sp)
c0007eb4:	00 e4 04 00 	or s0, s0, 313
c0007eb8:	1e 00 00 88 	store_32 s0, (sp)
c0007ebc:	b7 ea ff f9 	call -21796 <panic>

dec_cache_ref:
c0007ec0:	de 03 fe 05 	add_i sp, sp, -128
c0007ec4:	1e f3 01 88 	store_32 s24, 124(sp)
c0007ec8:	3e e3 01 88 	store_32 s25, 120(sp)
c0007ecc:	5e d3 01 88 	store_32 s26, 116(sp)
c0007ed0:	7e c3 01 88 	store_32 s27, 112(sp)
c0007ed4:	9e b3 01 88 	store_32 s28, 108(sp)
c0007ed8:	fe a3 01 88 	store_32 ra, 104(sp)
c0007edc:	24 00 c0 4f 	movehi s1, 393220
c0007ee0:	41 c3 42 00 	or s26, s1, 4272
c0007ee4:	3a 00 00 a8 	load_32 s1, (s26)
c0007ee8:	40 00 00 ac 	getcr s2, 0
c0007eec:	00 03 f0 c0 	move s24, s0
c0007ef0:	21 00 11 c1 	cmpne_i s1, s1, s2
c0007ef4:	41 00 00 f4 	bnz s1, 8 <dec_cache_ref+0x3C>
c0007ef8:	5b 00 00 f6 	b 364 <dec_cache_ref+0x1A4>
c0007efc:	18 30 00 a8 	load_32 s0, 12(s24)
c0007f00:	00 00 00 12 	cmpgt_i s0, s0, 0
c0007f04:	40 00 00 f4 	bnz s0, 8 <dec_cache_ref+0x4C>
c0007f08:	5c 00 00 f6 	b 368 <dec_cache_ref+0x1B8>
c0007f0c:	18 30 00 05 	add_i s0, s24, 12
c0007f10:	20 00 00 aa 	load_sync s1, (s0)
c0007f14:	41 fc ff 05 	add_i s2, s1, -1
c0007f18:	20 80 f0 c0 	move s1, s1
c0007f1c:	40 00 00 8a 	store_sync s2, (s0)  
c0007f20:	82 ff ff f3 	bz s2, -16 <dec_cache_ref+0x50>
c0007f24:	01 04 00 11 	cmpne_i s0, s1, 1
c0007f28:	60 07 00 f4 	bnz s0, 236 <dec_cache_ref+0x154>
c0007f2c:	18 40 00 a8 	load_32 s0, 16(s24)
c0007f30:	40 00 00 f2 	bz s0, 8 <dec_cache_ref+0x78>
c0007f34:	e3 ff ff f9 	call -116 <dec_cache_ref>
c0007f38:	e2 ec ff f9 	call -19576 <disable_interrupts>
c0007f3c:	24 00 c0 4f 	movehi s1, 393220
c0007f40:	20 03 f0 c0 	move s25, s0
c0007f44:	00 04 00 0f 	move s0, 1
c0007f48:	61 43 4f 00 	or s27, s1, 5072
c0007f4c:	80 03 00 0f 	move s28, 0
c0007f50:	3b 00 00 a8 	load_32 s1, (s27)
c0007f54:	e1 ff ff f5 	bnz s1, -4 <dec_cache_ref+0x90>
c0007f58:	3b 00 00 aa 	load_sync s1, (s27)
c0007f5c:	41 00 1e c1 	cmpne_i s2, s1, s28
c0007f60:	82 00 00 f4 	bnz s2, 16 <dec_cache_ref+0xB0>
c0007f64:	40 00 f0 c0 	move s2, s0
c0007f68:	5b 00 00 8a 	store_sync s2, (s27)  
c0007f6c:	62 ff ff f3 	bz s2, -20 <dec_cache_ref+0x98>
c0007f70:	21 00 00 10 	cmpeq_i s1, s1, 0
c0007f74:	21 04 00 01 	and s1, s1, 1
c0007f78:	c1 fe ff f3 	bz s1, -40 <dec_cache_ref+0x90>
c0007f7c:	20 00 00 ac 	getcr s1, 0
c0007f80:	3a 00 00 88 	store_32 s1, (s26)
c0007f84:	18 10 00 a8 	load_32 s0, 4(s24)
c0007f88:	40 00 00 ac 	getcr s2, 0
c0007f8c:	60 00 0c c1 	cmpeq_i s3, s0, s24
c0007f90:	21 00 01 c1 	cmpeq_i s1, s1, s2
c0007f94:	03 03 00 f4 	bnz s3, 96 <dec_cache_ref+0x134>
c0007f98:	41 00 00 f4 	bnz s1, 8 <dec_cache_ref+0xE0>
c0007f9c:	26 00 00 f6 	b 152 <dec_cache_ref+0x174>
c0007fa0:	20 10 00 a8 	load_32 s1, 4(s0)
c0007fa4:	40 00 00 a8 	load_32 s2, (s0)
c0007fa8:	22 10 00 88 	store_32 s1, 4(s2)
c0007fac:	20 10 00 a8 	load_32 s1, 4(s0)
c0007fb0:	41 00 00 88 	store_32 s2, (s1)
c0007fb4:	80 13 00 88 	store_32 s28, 4(s0)
c0007fb8:	80 03 00 88 	store_32 s28, (s0)
c0007fbc:	20 30 00 a8 	load_32 s1, 12(s0)
c0007fc0:	40 20 00 a8 	load_32 s2, 8(s0)
c0007fc4:	22 10 00 88 	store_32 s1, 4(s2)
c0007fc8:	20 30 00 a8 	load_32 s1, 12(s0)
c0007fcc:	41 00 00 88 	store_32 s2, (s1)
c0007fd0:	80 33 00 88 	store_32 s28, 12(s0)
c0007fd4:	80 23 00 88 	store_32 s28, 8(s0)
c0007fd8:	1c fa ff f9 	call -6032 <dec_page_ref>
c0007fdc:	18 10 00 a8 	load_32 s0, 4(s24)
c0007fe0:	3a 00 00 a8 	load_32 s1, (s26)
c0007fe4:	40 00 00 ac 	getcr s2, 0
c0007fe8:	60 00 1c c1 	cmpne_i s3, s0, s24
c0007fec:	21 00 01 c1 	cmpeq_i s1, s1, s2
c0007ff0:	43 fd ff f5 	bnz s3, -88 <dec_cache_ref+0xD8>
c0007ff4:	41 00 00 f4 	bnz s1, 8 <dec_cache_ref+0x13C>
c0007ff8:	25 00 00 f6 	b 148 <dec_cache_ref+0x1CC>
c0007ffc:	00 fc ff 0f 	move s0, -1
c0008000:	1a 00 00 88 	store_32 s0, (s26)
c0008004:	9b 03 00 88 	store_32 s28, (s27)
c0008008:	00 00 00 e8 	membar
c000800c:	00 80 fc c0 	move s0, s25
c0008010:	b4 ec ff f9 	call -19760 <restore_interrupts>
c0008014:	fe a3 01 a8 	load_32 ra, 104(sp)
c0008018:	9e b3 01 a8 	load_32 s28, 108(sp)
c000801c:	7e c3 01 a8 	load_32 s27, 112(sp)
c0008020:	5e d3 01 a8 	load_32 s26, 116(sp)
c0008024:	3e e3 01 a8 	load_32 s25, 120(sp)
c0008028:	1e f3 01 a8 	load_32 s24, 124(sp)
c000802c:	de 03 02 05 	add_i sp, sp, 128
c0008030:	1f 00 00 f0 	ret
c0008034:	00 00 c0 4f 	movehi s0, 393216
c0008038:	20 3c 02 0f 	move s1, 143
c000803c:	00 6c 22 00 	or s0, s0, 2203
c0008040:	3e 20 00 88 	store_32 s1, 8(sp)
c0008044:	20 00 c0 4f 	movehi s1, 393216
c0008048:	1e 30 00 88 	store_32 s0, 12(sp)
c000804c:	00 00 c0 4f 	movehi s0, 393216
c0008050:	21 40 22 00 	or s1, s1, 2192
c0008054:	3e 10 00 88 	store_32 s1, 4(sp)
c0008058:	00 e4 04 00 	or s0, s0, 313
c000805c:	1e 00 00 88 	store_32 s0, (sp)
c0008060:	4e ea ff f9 	call -22216 <panic>
c0008064:	00 00 c0 4f 	movehi s0, 393216
c0008068:	20 44 01 0f 	move s1, 81
c000806c:	3e 20 00 88 	store_32 s1, 8(sp)
c0008070:	00 24 23 00 	or s0, s0, 2249
c0008074:	f4 ff ff f7 	b -48 <dec_cache_ref+0x184>
c0008078:	00 00 c0 4f 	movehi s0, 393216
c000807c:	20 48 01 0f 	move s1, 82
c0008080:	3e 20 00 88 	store_32 s1, 8(sp)
c0008084:	00 dc 23 00 	or s0, s0, 2295
c0008088:	ef ff ff f7 	b -68 <dec_cache_ref+0x184>
c000808c:	00 00 c0 4f 	movehi s0, 393216
c0008090:	20 08 01 0f 	move s1, 66
c0008094:	ea ff ff f7 	b -88 <dec_cache_ref+0x17C>

remove_cache_page:
c0008098:	de 03 fe 05 	add_i sp, sp, -128
c000809c:	fe f3 01 88 	store_32 ra, 124(sp)
c00080a0:	24 00 c0 4f 	movehi s1, 393220
c00080a4:	21 c0 42 00 	or s1, s1, 4272
c00080a8:	21 00 00 a8 	load_32 s1, (s1)
c00080ac:	40 00 00 ac 	getcr s2, 0
c00080b0:	21 00 01 c1 	cmpeq_i s1, s1, s2
c00080b4:	41 00 00 f4 	bnz s1, 8 <remove_cache_page+0x24>
c00080b8:	13 00 00 f6 	b 76 <remove_cache_page+0x6C>
c00080bc:	20 10 00 a8 	load_32 s1, 4(s0)
c00080c0:	40 00 00 a8 	load_32 s2, (s0)
c00080c4:	22 10 00 88 	store_32 s1, 4(s2)
c00080c8:	20 10 00 a8 	load_32 s1, 4(s0)
c00080cc:	41 00 00 88 	store_32 s2, (s1)
c00080d0:	20 00 00 0f 	move s1, 0
c00080d4:	20 10 00 88 	store_32 s1, 4(s0)
c00080d8:	20 00 00 88 	store_32 s1, (s0)
c00080dc:	40 30 00 a8 	load_32 s2, 12(s0)
c00080e0:	60 20 00 a8 	load_32 s3, 8(s0)
c00080e4:	43 10 00 88 	store_32 s2, 4(s3)
c00080e8:	40 30 00 a8 	load_32 s2, 12(s0)
c00080ec:	62 00 00 88 	store_32 s3, (s2)
c00080f0:	20 30 00 88 	store_32 s1, 12(s0)
c00080f4:	20 20 00 88 	store_32 s1, 8(s0)
c00080f8:	fe f3 01 a8 	load_32 ra, 124(sp)
c00080fc:	de 03 02 05 	add_i sp, sp, 128
c0008100:	1f 00 00 f0 	ret
c0008104:	00 00 c0 4f 	movehi s0, 393216
c0008108:	20 3c 02 0f 	move s1, 143
c000810c:	3e 20 00 88 	store_32 s1, 8(sp)
c0008110:	20 00 c0 4f 	movehi s1, 393216
c0008114:	00 6c 22 00 	or s0, s0, 2203
c0008118:	1e 30 00 88 	store_32 s0, 12(sp)
c000811c:	00 00 c0 4f 	movehi s0, 393216
c0008120:	21 40 22 00 	or s1, s1, 2192
c0008124:	3e 10 00 88 	store_32 s1, 4(sp)
c0008128:	00 e4 04 00 	or s0, s0, 313
c000812c:	1e 00 00 88 	store_32 s0, (sp)
c0008130:	1a ea ff f9 	call -22424 <panic>

insert_cache_page:
c0008134:	de 03 fe 05 	add_i sp, sp, -128
c0008138:	fe f3 01 88 	store_32 ra, 124(sp)
c000813c:	64 00 c0 4f 	movehi s3, 393220
c0008140:	63 c0 42 00 	or s3, s3, 4272
c0008144:	63 00 00 a8 	load_32 s3, (s3)
c0008148:	80 00 00 ac 	getcr s4, 0
c000814c:	63 00 02 c1 	cmpeq_i s3, s3, s4
c0008150:	43 00 00 f4 	bnz s3, 8 <insert_cache_page+0x24>
c0008154:	26 00 00 f6 	b 152 <insert_cache_page+0xB8>
c0008158:	62 50 00 a8 	load_32 s3, 20(s2)
c000815c:	43 00 00 f2 	bz s3, 8 <insert_cache_page+0x30>
c0008160:	28 00 00 f6 	b 160 <insert_cache_page+0xCC>
c0008164:	61 30 00 0a 	shr s3, s1, 12
c0008168:	02 50 00 88 	store_32 s0, 20(s2)
c000816c:	9c cc ba 4f 	movehi s4, 382588
c0008170:	21 00 c0 01 	and s1, s1, -4096
c0008174:	22 40 00 88 	store_32 s1, 16(s2)
c0008178:	63 00 50 c0 	add_i s3, s3, s0
c000817c:	84 34 45 00 	or s4, s4, 4429
c0008180:	83 00 82 c0 	mulh_u s4, s3, s4
c0008184:	a3 00 62 c0 	sub_i s5, s3, s4
c0008188:	a5 04 00 0a 	shr s5, s5, 1
c000818c:	85 00 52 c0 	add_i s4, s5, s4
c0008190:	a4 00 c0 4f 	movehi s5, 393220
c0008194:	84 14 00 0a 	shr s4, s4, 5
c0008198:	84 94 00 07 	mull_i s4, s4, 37
c000819c:	63 00 62 c0 	sub_i s3, s3, s4
c00081a0:	85 a0 4a 00 	or s4, s5, 4776
c00081a4:	63 0c 00 0b 	shl s3, s3, 3
c00081a8:	64 80 51 c0 	add_i s3, s4, s3
c00081ac:	82 20 00 05 	add_i s4, s2, 8
c00081b0:	23 00 00 a8 	load_32 s1, (s3)
c00081b4:	22 20 00 88 	store_32 s1, 8(s2)
c00081b8:	62 30 00 88 	store_32 s3, 12(s2)
c00081bc:	81 10 00 88 	store_32 s4, 4(s1)
c00081c0:	22 30 00 a8 	load_32 s1, 12(s2)
c00081c4:	81 00 00 88 	store_32 s4, (s1)
c00081c8:	20 00 00 a8 	load_32 s1, (s0)
c00081cc:	22 00 00 88 	store_32 s1, (s2)
c00081d0:	02 10 00 88 	store_32 s0, 4(s2)
c00081d4:	41 10 00 88 	store_32 s2, 4(s1)
c00081d8:	02 10 00 a8 	load_32 s0, 4(s2)
c00081dc:	40 00 00 88 	store_32 s2, (s0)
c00081e0:	fe f3 01 a8 	load_32 ra, 124(sp)
c00081e4:	de 03 02 05 	add_i sp, sp, 128
c00081e8:	1f 00 00 f0 	ret
c00081ec:	00 00 c0 4f 	movehi s0, 393216
c00081f0:	20 c0 01 0f 	move s1, 112
c00081f4:	3e 20 00 88 	store_32 s1, 8(sp)
c00081f8:	00 6c 22 00 	or s0, s0, 2203
c00081fc:	05 00 00 f6 	b 20 <insert_cache_page+0xDC>
c0008200:	00 00 c0 4f 	movehi s0, 393216
c0008204:	20 d0 01 0f 	move s1, 116
c0008208:	3e 20 00 88 	store_32 s1, 8(sp)
c000820c:	00 30 24 00 	or s0, s0, 2316
c0008210:	20 00 c0 4f 	movehi s1, 393216
c0008214:	1e 30 00 88 	store_32 s0, 12(sp)
c0008218:	00 00 c0 4f 	movehi s0, 393216
c000821c:	21 40 22 00 	or s1, s1, 2192
c0008220:	3e 10 00 88 	store_32 s1, 4(sp)
c0008224:	00 e4 04 00 	or s0, s0, 313
c0008228:	1e 00 00 88 	store_32 s0, (sp)
c000822c:	db e9 ff f9 	call -22676 <panic>

lookup_cache_page:
c0008230:	de 03 fe 05 	add_i sp, sp, -128
c0008234:	fe f3 01 88 	store_32 ra, 124(sp)
c0008238:	44 00 c0 4f 	movehi s2, 393220
c000823c:	42 c0 42 00 	or s2, s2, 4272
c0008240:	42 00 00 a8 	load_32 s2, (s2)
c0008244:	60 00 00 ac 	getcr s3, 0
c0008248:	42 80 01 c1 	cmpeq_i s2, s2, s3
c000824c:	42 00 00 f4 	bnz s2, 8 <lookup_cache_page+0x24>
c0008250:	24 00 00 f6 	b 144 <lookup_cache_page+0xB0>
c0008254:	41 30 00 0a 	shr s2, s1, 12
c0008258:	7c cc ba 4f 	movehi s3, 382588
c000825c:	42 00 50 c0 	add_i s2, s2, s0
c0008260:	63 34 45 00 	or s3, s3, 4429
c0008264:	62 80 81 c0 	mulh_u s3, s2, s3
c0008268:	82 80 61 c0 	sub_i s4, s2, s3
c000826c:	84 04 00 0a 	shr s4, s4, 1
c0008270:	64 80 51 c0 	add_i s3, s4, s3
c0008274:	84 00 c0 4f 	movehi s4, 393220
c0008278:	63 14 00 0a 	shr s3, s3, 5
c000827c:	63 94 00 07 	mull_i s3, s3, 37
c0008280:	42 80 61 c0 	sub_i s2, s2, s3
c0008284:	64 a0 4a 00 	or s3, s4, 4776
c0008288:	42 0c 00 0b 	shl s2, s2, 3
c000828c:	83 00 51 c0 	add_i s4, s3, s2
c0008290:	40 00 00 0f 	move s2, 0
c0008294:	64 10 00 a8 	load_32 s3, 4(s4)
c0008298:	a4 80 01 c1 	cmpeq_i s5, s4, s3
c000829c:	a5 01 00 f4 	bnz s5, 52 <lookup_cache_page+0xA0>
c00082a0:	21 00 c0 01 	and s1, s1, -4096
c00082a4:	a3 20 00 a8 	load_32 s5, 8(s3)
c00082a8:	a5 80 10 c1 	cmpne_i s5, s5, s1
c00082ac:	85 00 00 f4 	bnz s5, 16 <lookup_cache_page+0x8C>
c00082b0:	a3 30 00 a8 	load_32 s5, 12(s3)
c00082b4:	a5 00 00 c1 	cmpeq_i s5, s5, s0
c00082b8:	a5 00 00 f4 	bnz s5, 20 <lookup_cache_page+0x9C>
c00082bc:	63 10 00 a8 	load_32 s3, 4(s3)
c00082c0:	a4 80 11 c1 	cmpne_i s5, s4, s3
c00082c4:	05 ff ff f5 	bnz s5, -32 <lookup_cache_page+0x74>
c00082c8:	02 00 00 f6 	b 8 <lookup_cache_page+0xA0>
c00082cc:	43 e0 ff 05 	add_i s2, s3, -8
c00082d0:	00 00 f1 c0 	move s0, s2
c00082d4:	fe f3 01 a8 	load_32 ra, 124(sp)
c00082d8:	de 03 02 05 	add_i sp, sp, 128
c00082dc:	1f 00 00 f0 	ret
c00082e0:	00 00 c0 4f 	movehi s0, 393216
c00082e4:	20 00 02 0f 	move s1, 128
c00082e8:	3e 20 00 88 	store_32 s1, 8(sp)
c00082ec:	20 00 c0 4f 	movehi s1, 393216
c00082f0:	00 6c 22 00 	or s0, s0, 2203
c00082f4:	1e 30 00 88 	store_32 s0, 12(sp)
c00082f8:	00 00 c0 4f 	movehi s0, 393216
c00082fc:	21 40 22 00 	or s1, s1, 2192
c0008300:	3e 10 00 88 	store_32 s1, 4(sp)
c0008304:	00 e4 04 00 	or s0, s0, 313
c0008308:	1e 00 00 88 	store_32 s0, (sp)
c000830c:	a3 e9 ff f9 	call -22900 <panic>

handle_syscall:
c0008310:	de 03 fd 05 	add_i sp, sp, -192
c0008314:	1e f3 02 88 	store_32 s24, 188(sp)
c0008318:	3e e3 02 88 	store_32 s25, 184(sp)
c000831c:	5e d3 02 88 	store_32 s26, 180(sp)
c0008320:	7e c3 02 88 	store_32 s27, 176(sp)
c0008324:	9e b3 02 88 	store_32 s28, 172(sp)
c0008328:	fe a3 02 88 	store_32 ra, 168(sp)
c000832c:	80 83 f2 c0 	move s28, s5
c0008330:	60 83 f1 c0 	move s27, s3
c0008334:	20 03 f1 c0 	move s25, s2
c0008338:	c0 28 00 16 	cmpgt_u s6, s0, 10
c000833c:	40 83 f0 c0 	move s26, s1
c0008340:	c6 0d 00 f4 	bnz s6, 440 <handle_syscall+0x1E8>
c0008344:	20 00 c0 4f 	movehi s1, 393216
c0008348:	00 08 00 0b 	shl s0, s0, 2
c000834c:	21 40 2f 00 	or s1, s1, 3024
c0008350:	00 80 50 c0 	add_i s0, s0, s1
c0008354:	00 00 00 a8 	load_32 s0, (s0)
c0008358:	00 00 00 f0 	b s0
c000835c:	19 f8 00 18 	cmplt_u s0, s25, 62
c0008360:	e0 08 00 f4 	bnz s0, 284 <handle_syscall+0x16C>
c0008364:	00 00 c0 4f 	movehi s0, 393216
c0008368:	00 74 24 00 	or s0, s0, 2333
c000836c:	57 00 00 f6 	b 348 <handle_syscall+0x1B8>
c0008370:	00 04 00 0f 	move s0, 1
c0008374:	00 03 00 0f 	move s24, 0
c0008378:	00 03 00 88 	store_32 s24, (s0)
c000837c:	56 00 00 f6 	b 344 <handle_syscall+0x1C4>
c0008380:	23 ef ff f9 	call -17268 <current_thread>
c0008384:	00 43 00 a8 	load_32 s24, 16(s0)
c0008388:	53 00 00 f6 	b 332 <handle_syscall+0x1C4>
c000838c:	1a 0c 00 16 	cmpgt_u s0, s26, 3
c0008390:	20 07 00 f4 	bnz s0, 228 <handle_syscall+0x164>
c0008394:	18 fc ff 4f 	movehi s0, 524280
c0008398:	3a 08 00 0b 	shl s1, s26, 2
c000839c:	00 40 08 00 	or s0, s0, 528
c00083a0:	01 00 50 c0 	add_i s0, s1, s0
c00083a4:	00 03 00 a8 	load_32 s24, (s0)
c00083a8:	4b 00 00 f6 	b 300 <handle_syscall+0x1C4>
c00083ac:	18 ef ff f9 	call -17312 <current_thread>
c00083b0:	20 90 00 a8 	load_32 s1, 36(s0)
c00083b4:	00 00 fd c0 	move s0, s26
c00083b8:	40 80 fc c0 	move s2, s25
c00083bc:	60 80 fd c0 	move s3, s27
c00083c0:	cf f0 ff f9 	call -15556 <spawn_user_thread>
c00083c4:	00 03 00 0f 	move s24, 0
c00083c8:	43 00 00 f6 	b 268 <handle_syscall+0x1C4>
c00083cc:	00 00 fd c0 	move s0, s26
c00083d0:	26 f1 ff f9 	call -15208 <exec_program>
c00083d4:	e0 07 00 f2 	bz s0, 252 <handle_syscall+0x1C0>
c00083d8:	00 33 00 a8 	load_32 s24, 12(s0)
c00083dc:	90 ef ff f9 	call -16832 <dec_proc_ref>
c00083e0:	3d 00 00 f6 	b 244 <handle_syscall+0x1C4>
c00083e4:	00 00 fd c0 	move s0, s26
c00083e8:	79 00 00 f8 	call 484 <init_vga>
c00083ec:	00 03 f0 c0 	move s24, s0
c00083f0:	39 00 00 f6 	b 228 <handle_syscall+0x1C4>
c00083f4:	1e a0 01 05 	add_i s0, sp, 104
c00083f8:	40 00 01 0f 	move s2, 64
c00083fc:	20 00 f2 c0 	move s1, s4
c0008400:	5a 00 00 f8 	call 360 <user_strlcpy>
c0008404:	00 00 00 14 	cmplt_i s0, s0, 0
c0008408:	60 03 00 f4 	bnz s0, 108 <handle_syscall+0x164>
c000840c:	00 ef ff f9 	call -17408 <current_thread>
c0008410:	00 90 00 a8 	load_32 s0, 36(s0)
c0008414:	00 03 00 0f 	move s24, 0
c0008418:	9e a0 01 05 	add_i s4, sp, 104
c000841c:	00 70 00 a8 	load_32 s0, 28(s0)
c0008420:	20 00 fd c0 	move s1, s26
c0008424:	40 80 fc c0 	move s2, s25
c0008428:	60 80 fd c0 	move s3, s27
c000842c:	a0 00 fe c0 	move s5, s28
c0008430:	c0 00 fc c0 	move s6, s24
c0008434:	e0 00 fc c0 	move s7, s24
c0008438:	f4 fb ff f9 	call -4144 <create_area>
c000843c:	c0 04 00 f2 	bz s0, 152 <handle_syscall+0x1C4>
c0008440:	00 23 00 a8 	load_32 s24, 8(s0)
c0008444:	24 00 00 f6 	b 144 <handle_syscall+0x1C4>
c0008448:	1a 0c 00 16 	cmpgt_u s0, s26, 3
c000844c:	00 03 00 0f 	move s24, 0
c0008450:	20 04 00 f4 	bnz s0, 132 <handle_syscall+0x1C4>
c0008454:	18 fc ff 4f 	movehi s0, 524280
c0008458:	3a 08 00 0b 	shl s1, s26, 2
c000845c:	00 00 08 00 	or s0, s0, 512
c0008460:	01 00 50 c0 	add_i s0, s1, s0
c0008464:	20 03 00 88 	store_32 s25, (s0)
c0008468:	1b 00 00 f6 	b 108 <handle_syscall+0x1C4>
c000846c:	06 03 00 ac 	getcr s24, 6
c0008470:	19 00 00 f6 	b 100 <handle_syscall+0x1C4>
c0008474:	00 03 00 0f 	move s24, 0
c0008478:	17 00 00 f6 	b 92 <handle_syscall+0x1C4>
c000847c:	7e a3 01 05 	add_i s27, sp, 104
c0008480:	00 80 fd c0 	move s0, s27
c0008484:	20 00 fd c0 	move s1, s26
c0008488:	40 80 fc c0 	move s2, s25
c000848c:	22 00 00 f8 	call 136 <user_copy>
c0008490:	00 fc ff 12 	cmpgt_i s0, s0, -1
c0008494:	40 00 00 f4 	bnz s0, 8 <handle_syscall+0x18C>
c0008498:	0a 00 00 f6 	b 40 <handle_syscall+0x1B0>
c000849c:	1b 80 5c c0 	add_i s0, s27, s25
c00084a0:	00 03 00 0f 	move s24, 0
c00084a4:	00 03 00 82 	store_8 s24, (s0)
c00084a8:	00 00 c0 4f 	movehi s0, 393216
c00084ac:	7e 13 00 88 	store_32 s27, 4(sp)
c00084b0:	00 08 25 00 	or s0, s0, 2370
c00084b4:	1e 00 00 88 	store_32 s0, (sp)
c00084b8:	6c e7 ff f9 	call -25168 <kprintf>
c00084bc:	06 00 00 f6 	b 24 <handle_syscall+0x1C4>
c00084c0:	00 00 c0 4f 	movehi s0, 393216
c00084c4:	00 c0 24 00 	or s0, s0, 2352
c00084c8:	1e 00 00 88 	store_32 s0, (sp)
c00084cc:	67 e7 ff f9 	call -25188 <kprintf>
c00084d0:	00 ff ff 0f 	move s24, -1
c00084d4:	00 00 fc c0 	move s0, s24
c00084d8:	fe a3 02 a8 	load_32 ra, 168(sp)
c00084dc:	9e b3 02 a8 	load_32 s28, 172(sp)
c00084e0:	7e c3 02 a8 	load_32 s27, 176(sp)
c00084e4:	5e d3 02 a8 	load_32 s26, 180(sp)
c00084e8:	3e e3 02 a8 	load_32 s25, 184(sp)
c00084ec:	1e f3 02 a8 	load_32 s24, 188(sp)
c00084f0:	de 03 03 05 	add_i sp, sp, 192
c00084f4:	1f 00 00 f0 	ret
c00084f8:	20 00 c0 4f 	movehi s1, 393216
c00084fc:	1e 10 00 88 	store_32 s0, 4(sp)
c0008500:	01 14 25 00 	or s0, s1, 2373
c0008504:	1e 00 00 88 	store_32 s0, (sp)
c0008508:	24 e9 ff f9 	call -23408 <panic>
c000850c:	00 00 fd c0 	move s0, s26
c0008510:	40 f1 ff f9 	call -15104 <thread_exit>

user_copy:
c0008514:	64 00 c0 4f 	movehi s3, 393220
c0008518:	63 70 51 00 	or s3, s3, 5212
c000851c:	80 00 00 ac 	getcr s4, 0
c0008520:	84 08 00 0b 	shl s4, s4, 2
c0008524:	84 80 51 c0 	add_i s4, s4, s3
c0008528:	64 00 c0 4f 	movehi s3, 393220
c000852c:	63 40 15 00 	or s3, s3, 1360
c0008530:	64 00 00 88 	store_32 s3, (s4)
c0008534:	22 01 00 f2 	bz s2, 36 <uc_fault+0x8>
c0008538:	61 00 00 a2 	load_s8 s3, (s1)
c000853c:	60 00 00 82 	store_8 s3, (s0)
c0008540:	00 04 00 05 	add_i s0, s0, 1
c0008544:	21 04 00 05 	add_i s1, s1, 1
c0008548:	42 04 00 06 	sub_i s2, s2, 1
c000854c:	fa ff ff f7 	b -24 <user_copy+0x20>

uc_fault:
c0008550:	00 fc ff 0f 	move s0, -1
c0008554:	02 00 00 f6 	b 8 <uc_fault+0xC>
c0008558:	00 00 00 0f 	move s0, 0
c000855c:	60 00 00 0f 	move s3, 0
c0008560:	64 00 00 88 	store_32 s3, (s4)
c0008564:	1f 00 00 f0 	ret

user_strlcpy:
c0008568:	64 00 c0 4f 	movehi s3, 393220
c000856c:	63 70 51 00 	or s3, s3, 5212
c0008570:	80 00 00 ac 	getcr s4, 0
c0008574:	84 08 00 0b 	shl s4, s4, 2
c0008578:	84 80 51 c0 	add_i s4, s4, s3
c000857c:	64 00 c0 4f 	movehi s3, 393220
c0008580:	63 b0 16 00 	or s3, s3, 1452
c0008584:	64 00 00 88 	store_32 s3, (s4)
c0008588:	62 01 00 f2 	bz s2, 44 <usc_fault+0x8>
c000858c:	42 04 00 06 	sub_i s2, s2, 1
c0008590:	22 01 00 f2 	bz s2, 36 <usc_fault+0x8>
c0008594:	61 00 00 a2 	load_s8 s3, (s1)
c0008598:	e3 00 00 f2 	bz s3, 28 <usc_fault+0x8>
c000859c:	60 00 00 82 	store_8 s3, (s0)
c00085a0:	00 04 00 05 	add_i s0, s0, 1
c00085a4:	21 04 00 05 	add_i s1, s1, 1
c00085a8:	f9 ff ff f7 	b -28 <user_strlcpy+0x24>

usc_fault:
c00085ac:	00 fc ff 0f 	move s0, -1
c00085b0:	04 00 00 f6 	b 16 <usc_fault+0x14>
c00085b4:	60 00 00 0f 	move s3, 0
c00085b8:	60 00 00 82 	store_8 s3, (s0)
c00085bc:	00 00 00 0f 	move s0, 0
c00085c0:	60 00 00 0f 	move s3, 0
c00085c4:	64 00 00 88 	store_32 s3, (s4)
c00085c8:	1f 00 00 f0 	ret

init_vga:
c00085cc:	de 03 fe 05 	add_i sp, sp, -128
c00085d0:	1e f3 01 88 	store_32 s24, 124(sp)
c00085d4:	3e e3 01 88 	store_32 s25, 120(sp)
c00085d8:	5e d3 01 88 	store_32 s26, 116(sp)
c00085dc:	7e c3 01 88 	store_32 s27, 112(sp)
c00085e0:	9e b3 01 88 	store_32 s28, 108(sp)
c00085e4:	fe a3 01 88 	store_32 ra, 104(sp)
c00085e8:	20 00 f0 c0 	move s1, s0
c00085ec:	98 ff ff 4f 	movehi s28, 524280
c00085f0:	00 00 00 0f 	move s0, 0
c00085f4:	41 04 00 10 	cmpeq_i s2, s1, 1
c00085f8:	7c 03 06 00 	or s27, s28, 384
c00085fc:	1b 00 00 88 	store_32 s0, (s27)
c0008600:	22 01 00 f4 	bnz s2, 36 <init_vga+0x58>
c0008604:	41 05 00 f4 	bnz s1, 168 <init_vga+0xE0>
c0008608:	00 28 00 0f 	move s0, 10
c000860c:	20 84 00 0f 	move s1, 33
c0008610:	40 00 00 0f 	move s2, 0
c0008614:	60 80 07 0f 	move s3, 480
c0008618:	2d 00 00 f8 	call 180 <compile_microcode>
c000861c:	16 13 00 4f 	movehi s24, 150
c0008620:	07 00 00 f6 	b 28 <init_vga+0x70>
c0008624:	00 30 00 0f 	move s0, 12
c0008628:	20 8c 00 0f 	move s1, 35
c000862c:	40 04 00 0f 	move s2, 1
c0008630:	60 40 06 0f 	move s3, 400
c0008634:	26 00 00 f8 	call 152 <compile_microcode>
c0008638:	1d 0f 00 4f 	movehi s24, 125
c000863c:	00 00 fc c0 	move s0, s24
c0008640:	df f8 ff f9 	call -7300 <allocate_contiguous_memory>
c0008644:	20 03 f0 c0 	move s25, s0
c0008648:	71 ee ff f9 	call -17980 <current_thread>
c000864c:	00 90 00 a8 	load_32 s0, 36(s0)
c0008650:	20 00 c0 4f 	movehi s1, 393216
c0008654:	60 08 00 0f 	move s3, 2
c0008658:	a0 0c 00 0f 	move s5, 3
c000865c:	81 64 25 00 	or s4, s1, 2393
c0008660:	00 70 00 a8 	load_32 s0, 28(s0)
c0008664:	40 00 fc c0 	move s2, s24
c0008668:	20 00 40 4f 	movehi s1, 131072
c000866c:	c0 80 fc c0 	move s6, s25
c0008670:	b5 fc ff f9 	call -3372 <map_contiguous_memory>
c0008674:	40 03 f0 c0 	move s26, s0
c0008678:	3c 20 06 00 	or s1, s28, 392
c000867c:	1c 30 06 00 	or s0, s28, 396
c0008680:	21 03 00 88 	store_32 s25, (s1)
c0008684:	38 08 00 0a 	shr s1, s24, 2
c0008688:	20 00 00 88 	store_32 s1, (s0)
c000868c:	00 04 00 0f 	move s0, 1
c0008690:	1b 00 00 88 	store_32 s0, (s27)
c0008694:	00 00 c0 4f 	movehi s0, 393216
c0008698:	1e 13 00 88 	store_32 s24, 4(sp)
c000869c:	00 98 25 00 	or s0, s0, 2406
c00086a0:	1e 00 00 88 	store_32 s0, (sp)
c00086a4:	f1 e6 ff f9 	call -25660 <kprintf>
c00086a8:	1a 20 00 a8 	load_32 s0, 8(s26)
c00086ac:	fe a3 01 a8 	load_32 ra, 104(sp)
c00086b0:	9e b3 01 a8 	load_32 s28, 108(sp)
c00086b4:	7e c3 01 a8 	load_32 s27, 112(sp)
c00086b8:	5e d3 01 a8 	load_32 s26, 116(sp)
c00086bc:	3e e3 01 a8 	load_32 s25, 120(sp)
c00086c0:	1e f3 01 a8 	load_32 s24, 124(sp)
c00086c4:	de 03 02 05 	add_i sp, sp, 128
c00086c8:	1f 00 00 f0 	ret

compile_microcode:
c00086cc:	42 00 00 10 	cmpeq_i s2, s2, 0
c00086d0:	62 00 00 f4 	bnz s2, 12 <compile_microcode+0x10>
c00086d4:	a0 10 00 0f 	move s5, 4
c00086d8:	02 00 00 f6 	b 8 <compile_microcode+0x14>
c00086dc:	a0 30 00 0f 	move s5, 12
c00086e0:	44 00 c0 4f 	movehi s2, 393220
c00086e4:	84 00 c0 4f 	movehi s4, 393220
c00086e8:	00 10 00 0b 	shl s0, s0, 4
c00086ec:	42 50 4f 00 	or s2, s2, 5076
c00086f0:	f8 fc ff 4f 	movehi s7, 524280
c00086f4:	84 60 4f 00 	or s4, s4, 5080
c00086f8:	a2 00 00 88 	store_32 s5, (s2)
c00086fc:	a0 80 02 c0 	or s5, s0, s5
c0008700:	07 10 06 00 	or s0, s7, 388
c0008704:	10 01 00 4f 	movehi s8, 16
c0008708:	c0 00 00 0f 	move s6, 0
c000870c:	c4 00 00 88 	store_32 s6, (s4)
c0008710:	a5 00 04 c0 	or s5, s5, s8
c0008714:	a0 00 00 88 	store_32 s5, (s0)
c0008718:	a4 00 00 a8 	load_32 s5, (s4)
c000871c:	21 10 00 0b 	shl s1, s1, 4
c0008720:	63 10 00 0b 	shl s3, s3, 4
c0008724:	c5 04 00 05 	add_i s6, s5, 1
c0008728:	c4 00 00 88 	store_32 s6, (s4)
c000872c:	a2 00 00 a8 	load_32 s5, (s2)
c0008730:	c6 10 00 0b 	shl s6, s6, 4
c0008734:	a5 c0 03 00 	or s5, s5, 240
c0008738:	a0 00 00 88 	store_32 s5, (s0)
c000873c:	a4 00 00 a8 	load_32 s5, (s4)
c0008740:	a5 04 00 05 	add_i s5, s5, 1
c0008744:	a4 00 00 88 	store_32 s5, (s4)
c0008748:	e2 00 00 a8 	load_32 s7, (s2)
c000874c:	a5 10 00 0b 	shl s5, s5, 4
c0008750:	e5 80 03 c0 	or s7, s5, s7
c0008754:	a0 04 00 4f 	movehi s5, 32
c0008758:	e7 80 02 c0 	or s7, s7, s5
c000875c:	e0 00 00 88 	store_32 s7, (s0)
c0008760:	e4 00 00 a8 	load_32 s7, (s4)
c0008764:	e7 04 00 05 	add_i s7, s7, 1
c0008768:	e4 00 00 88 	store_32 s7, (s4)
c000876c:	e2 00 00 a8 	load_32 s7, (s2)
c0008770:	e7 10 00 03 	xor s7, s7, 4
c0008774:	e2 00 00 88 	store_32 s7, (s2)
c0008778:	e7 c0 17 00 	or s7, s7, 1520
c000877c:	e0 00 00 88 	store_32 s7, (s0)
c0008780:	e4 00 00 a8 	load_32 s7, (s4)
c0008784:	e7 04 00 05 	add_i s7, s7, 1
c0008788:	e4 00 00 88 	store_32 s7, (s4)
c000878c:	22 01 00 a8 	load_32 s9, (s2)
c0008790:	e7 10 00 0b 	shl s7, s7, 4
c0008794:	e7 80 04 c0 	or s7, s7, s9
c0008798:	e7 80 02 c0 	or s7, s7, s5
c000879c:	e0 00 00 88 	store_32 s7, (s0)
c00087a0:	e4 00 00 a8 	load_32 s7, (s4)
c00087a4:	e7 04 00 05 	add_i s7, s7, 1
c00087a8:	e4 00 00 88 	store_32 s7, (s4)
c00087ac:	e2 00 00 a8 	load_32 s7, (s2)
c00087b0:	e7 10 00 03 	xor s7, s7, 4
c00087b4:	e2 00 00 88 	store_32 s7, (s2)
c00087b8:	e7 c0 0b 00 	or s7, s7, 752
c00087bc:	e0 00 00 88 	store_32 s7, (s0)
c00087c0:	e4 00 00 a8 	load_32 s7, (s4)
c00087c4:	e7 04 00 05 	add_i s7, s7, 1
c00087c8:	e4 00 00 88 	store_32 s7, (s4)
c00087cc:	22 01 00 a8 	load_32 s9, (s2)
c00087d0:	e7 10 00 0b 	shl s7, s7, 4
c00087d4:	e7 80 04 c0 	or s7, s7, s9
c00087d8:	e7 80 02 c0 	or s7, s7, s5
c00087dc:	e0 00 00 88 	store_32 s7, (s0)
c00087e0:	e4 00 00 a8 	load_32 s7, (s4)
c00087e4:	e7 04 00 05 	add_i s7, s7, 1
c00087e8:	e4 00 00 88 	store_32 s7, (s4)
c00087ec:	e1 00 00 4f 	movehi s7, 1
c00087f0:	22 01 00 a8 	load_32 s9, (s2)
c00087f4:	e7 c0 1f 00 	or s7, s7, 2032
c00087f8:	29 81 03 c0 	or s9, s9, s7
c00087fc:	20 01 00 88 	store_32 s9, (s0)
c0008800:	24 01 00 a8 	load_32 s9, (s4)
c0008804:	29 05 00 05 	add_i s9, s9, 1
c0008808:	24 01 00 88 	store_32 s9, (s4)
c000880c:	42 01 00 a8 	load_32 s10, (s2)
c0008810:	29 11 00 0b 	shl s9, s9, 4
c0008814:	29 01 05 c0 	or s9, s9, s10
c0008818:	48 81 00 00 	or s10, s8, 32
c000881c:	29 81 02 c0 	or s9, s9, s5
c0008820:	20 01 00 88 	store_32 s9, (s0)
c0008824:	24 01 00 a8 	load_32 s9, (s4)
c0008828:	29 05 00 05 	add_i s9, s9, 1
c000882c:	24 01 00 88 	store_32 s9, (s4)
c0008830:	22 01 00 a8 	load_32 s9, (s2)
c0008834:	26 81 04 c0 	or s9, s6, s9
c0008838:	d0 04 00 4f 	movehi s6, 48
c000883c:	29 01 03 c0 	or s9, s9, s6
c0008840:	20 01 00 88 	store_32 s9, (s0)
c0008844:	24 01 00 a8 	load_32 s9, (s4)
c0008848:	29 05 00 05 	add_i s9, s9, 1
c000884c:	24 01 00 88 	store_32 s9, (s4)
c0008850:	22 01 00 a8 	load_32 s9, (s2)
c0008854:	29 21 00 03 	xor s9, s9, 8
c0008858:	22 01 00 88 	store_32 s9, (s2)
c000885c:	29 01 05 c0 	or s9, s9, s10
c0008860:	20 01 00 88 	store_32 s9, (s0)
c0008864:	24 01 00 a8 	load_32 s9, (s4)
c0008868:	29 05 00 05 	add_i s9, s9, 1
c000886c:	24 01 00 88 	store_32 s9, (s4)
c0008870:	42 01 00 a8 	load_32 s10, (s2)
c0008874:	29 11 00 0b 	shl s9, s9, 4
c0008878:	4a c1 03 00 	or s10, s10, 240
c000887c:	40 01 00 88 	store_32 s10, (s0)
c0008880:	44 01 00 a8 	load_32 s10, (s4)
c0008884:	4a 05 00 05 	add_i s10, s10, 1
c0008888:	44 01 00 88 	store_32 s10, (s4)
c000888c:	62 01 00 a8 	load_32 s11, (s2)
c0008890:	4a 11 00 0b 	shl s10, s10, 4
c0008894:	4a 81 05 c0 	or s10, s10, s11
c0008898:	4a 81 02 c0 	or s10, s10, s5
c000889c:	40 01 00 88 	store_32 s10, (s0)
c00088a0:	44 01 00 a8 	load_32 s10, (s4)
c00088a4:	4a 05 00 05 	add_i s10, s10, 1
c00088a8:	44 01 00 88 	store_32 s10, (s4)
c00088ac:	42 01 00 a8 	load_32 s10, (s2)
c00088b0:	4a 11 00 03 	xor s10, s10, 4
c00088b4:	42 01 00 88 	store_32 s10, (s2)
c00088b8:	4a c1 17 00 	or s10, s10, 1520
c00088bc:	40 01 00 88 	store_32 s10, (s0)
c00088c0:	44 01 00 a8 	load_32 s10, (s4)
c00088c4:	4a 05 00 05 	add_i s10, s10, 1
c00088c8:	44 01 00 88 	store_32 s10, (s4)
c00088cc:	62 01 00 a8 	load_32 s11, (s2)
c00088d0:	4a 11 00 0b 	shl s10, s10, 4
c00088d4:	4a 81 05 c0 	or s10, s10, s11
c00088d8:	4a 81 02 c0 	or s10, s10, s5
c00088dc:	40 01 00 88 	store_32 s10, (s0)
c00088e0:	44 01 00 a8 	load_32 s10, (s4)
c00088e4:	4a 05 00 05 	add_i s10, s10, 1
c00088e8:	44 01 00 88 	store_32 s10, (s4)
c00088ec:	42 01 00 a8 	load_32 s10, (s2)
c00088f0:	4a 11 00 03 	xor s10, s10, 4
c00088f4:	42 01 00 88 	store_32 s10, (s2)
c00088f8:	4a c1 0b 00 	or s10, s10, 752
c00088fc:	40 01 00 88 	store_32 s10, (s0)
c0008900:	44 01 00 a8 	load_32 s10, (s4)
c0008904:	4a 05 00 05 	add_i s10, s10, 1
c0008908:	44 01 00 88 	store_32 s10, (s4)
c000890c:	62 01 00 a8 	load_32 s11, (s2)
c0008910:	4a 11 00 0b 	shl s10, s10, 4
c0008914:	4a 81 05 c0 	or s10, s10, s11
c0008918:	4a 81 02 c0 	or s10, s10, s5
c000891c:	40 01 00 88 	store_32 s10, (s0)
c0008920:	44 01 00 a8 	load_32 s10, (s4)
c0008924:	4a 05 00 05 	add_i s10, s10, 1
c0008928:	44 01 00 88 	store_32 s10, (s4)
c000892c:	42 01 00 a8 	load_32 s10, (s2)
c0008930:	4a 81 03 c0 	or s10, s10, s7
c0008934:	40 01 00 88 	store_32 s10, (s0)
c0008938:	44 01 00 a8 	load_32 s10, (s4)
c000893c:	4a 05 00 05 	add_i s10, s10, 1
c0008940:	44 01 00 88 	store_32 s10, (s4)
c0008944:	62 01 00 a8 	load_32 s11, (s2)
c0008948:	4a 11 00 0b 	shl s10, s10, 4
c000894c:	4a 81 05 c0 	or s10, s10, s11
c0008950:	4a 81 02 c0 	or s10, s10, s5
c0008954:	40 01 00 88 	store_32 s10, (s0)
c0008958:	44 01 00 a8 	load_32 s10, (s4)
c000895c:	4a 05 00 05 	add_i s10, s10, 1
c0008960:	44 01 00 88 	store_32 s10, (s4)
c0008964:	42 01 00 a8 	load_32 s10, (s2)
c0008968:	29 01 05 c0 	or s9, s9, s10
c000896c:	29 01 03 c0 	or s9, s9, s6
c0008970:	20 01 00 88 	store_32 s9, (s0)
c0008974:	24 01 00 a8 	load_32 s9, (s4)
c0008978:	29 05 00 05 	add_i s9, s9, 1
c000897c:	24 01 00 88 	store_32 s9, (s4)
c0008980:	22 01 00 a8 	load_32 s9, (s2)
c0008984:	29 21 00 03 	xor s9, s9, 8
c0008988:	22 01 00 88 	store_32 s9, (s2)
c000898c:	21 80 04 c0 	or s1, s1, s9
c0008990:	21 00 04 c0 	or s1, s1, s8
c0008994:	20 00 00 88 	store_32 s1, (s0)
c0008998:	24 00 00 a8 	load_32 s1, (s4)
c000899c:	21 04 00 05 	add_i s1, s1, 1
c00089a0:	24 00 00 88 	store_32 s1, (s4)
c00089a4:	22 01 00 a8 	load_32 s9, (s2)
c00089a8:	21 10 00 0b 	shl s1, s1, 4
c00089ac:	29 c1 03 00 	or s9, s9, 240
c00089b0:	20 01 00 88 	store_32 s9, (s0)
c00089b4:	24 01 00 a8 	load_32 s9, (s4)
c00089b8:	29 05 00 05 	add_i s9, s9, 1
c00089bc:	24 01 00 88 	store_32 s9, (s4)
c00089c0:	42 01 00 a8 	load_32 s10, (s2)
c00089c4:	29 11 00 0b 	shl s9, s9, 4
c00089c8:	29 01 05 c0 	or s9, s9, s10
c00089cc:	29 81 02 c0 	or s9, s9, s5
c00089d0:	20 01 00 88 	store_32 s9, (s0)
c00089d4:	24 01 00 a8 	load_32 s9, (s4)
c00089d8:	29 05 00 05 	add_i s9, s9, 1
c00089dc:	24 01 00 88 	store_32 s9, (s4)
c00089e0:	22 01 00 a8 	load_32 s9, (s2)
c00089e4:	29 11 00 03 	xor s9, s9, 4
c00089e8:	22 01 00 88 	store_32 s9, (s2)
c00089ec:	29 c1 17 00 	or s9, s9, 1520
c00089f0:	20 01 00 88 	store_32 s9, (s0)
c00089f4:	24 01 00 a8 	load_32 s9, (s4)
c00089f8:	29 05 00 05 	add_i s9, s9, 1
c00089fc:	24 01 00 88 	store_32 s9, (s4)
c0008a00:	42 01 00 a8 	load_32 s10, (s2)
c0008a04:	29 11 00 0b 	shl s9, s9, 4
c0008a08:	29 01 05 c0 	or s9, s9, s10
c0008a0c:	29 81 02 c0 	or s9, s9, s5
c0008a10:	20 01 00 88 	store_32 s9, (s0)
c0008a14:	24 01 00 a8 	load_32 s9, (s4)
c0008a18:	29 05 00 05 	add_i s9, s9, 1
c0008a1c:	24 01 00 88 	store_32 s9, (s4)
c0008a20:	22 01 00 a8 	load_32 s9, (s2)
c0008a24:	29 11 00 03 	xor s9, s9, 4
c0008a28:	22 01 00 88 	store_32 s9, (s2)
c0008a2c:	29 c1 0b 00 	or s9, s9, 752
c0008a30:	20 01 00 88 	store_32 s9, (s0)
c0008a34:	24 01 00 a8 	load_32 s9, (s4)
c0008a38:	29 05 00 05 	add_i s9, s9, 1
c0008a3c:	24 01 00 88 	store_32 s9, (s4)
c0008a40:	42 01 00 a8 	load_32 s10, (s2)
c0008a44:	29 11 00 0b 	shl s9, s9, 4
c0008a48:	29 01 05 c0 	or s9, s9, s10
c0008a4c:	29 81 02 c0 	or s9, s9, s5
c0008a50:	20 01 00 88 	store_32 s9, (s0)
c0008a54:	24 01 00 a8 	load_32 s9, (s4)
c0008a58:	29 05 00 05 	add_i s9, s9, 1
c0008a5c:	24 01 00 88 	store_32 s9, (s4)
c0008a60:	22 01 00 a8 	load_32 s9, (s2)
c0008a64:	29 81 03 c0 	or s9, s9, s7
c0008a68:	20 01 00 88 	store_32 s9, (s0)
c0008a6c:	24 01 00 a8 	load_32 s9, (s4)
c0008a70:	29 05 00 05 	add_i s9, s9, 1
c0008a74:	24 01 00 88 	store_32 s9, (s4)
c0008a78:	42 01 00 a8 	load_32 s10, (s2)
c0008a7c:	29 11 00 0b 	shl s9, s9, 4
c0008a80:	29 01 05 c0 	or s9, s9, s10
c0008a84:	29 81 02 c0 	or s9, s9, s5
c0008a88:	20 01 00 88 	store_32 s9, (s0)
c0008a8c:	24 01 00 a8 	load_32 s9, (s4)
c0008a90:	29 05 00 05 	add_i s9, s9, 1
c0008a94:	24 01 00 88 	store_32 s9, (s4)
c0008a98:	22 01 00 a8 	load_32 s9, (s2)
c0008a9c:	21 80 04 c0 	or s1, s1, s9
c0008aa0:	21 00 03 c0 	or s1, s1, s6
c0008aa4:	20 00 00 88 	store_32 s1, (s0)
c0008aa8:	24 00 00 a8 	load_32 s1, (s4)
c0008aac:	21 04 00 05 	add_i s1, s1, 1
c0008ab0:	24 00 00 88 	store_32 s1, (s4)
c0008ab4:	22 00 00 a8 	load_32 s1, (s2)
c0008ab8:	23 80 00 c0 	or s1, s3, s1
c0008abc:	21 00 04 c0 	or s1, s1, s8
c0008ac0:	20 00 00 88 	store_32 s1, (s0)
c0008ac4:	24 00 00 a8 	load_32 s1, (s4)
c0008ac8:	21 04 00 05 	add_i s1, s1, 1
c0008acc:	24 00 00 88 	store_32 s1, (s4)
c0008ad0:	62 00 00 a8 	load_32 s3, (s2)
c0008ad4:	21 10 00 0b 	shl s1, s1, 4
c0008ad8:	63 c0 03 00 	or s3, s3, 240
c0008adc:	60 00 00 88 	store_32 s3, (s0)
c0008ae0:	64 00 00 a8 	load_32 s3, (s4)
c0008ae4:	63 04 00 05 	add_i s3, s3, 1
c0008ae8:	64 00 00 88 	store_32 s3, (s4)
c0008aec:	02 01 00 a8 	load_32 s8, (s2)
c0008af0:	63 10 00 0b 	shl s3, s3, 4
c0008af4:	63 00 04 c0 	or s3, s3, s8
c0008af8:	63 80 02 c0 	or s3, s3, s5
c0008afc:	60 00 00 88 	store_32 s3, (s0)
c0008b00:	64 00 00 a8 	load_32 s3, (s4)
c0008b04:	63 04 00 05 	add_i s3, s3, 1
c0008b08:	64 00 00 88 	store_32 s3, (s4)
c0008b0c:	62 00 00 a8 	load_32 s3, (s2)
c0008b10:	63 10 00 03 	xor s3, s3, 4
c0008b14:	62 00 00 88 	store_32 s3, (s2)
c0008b18:	63 c0 17 00 	or s3, s3, 1520
c0008b1c:	60 00 00 88 	store_32 s3, (s0)
c0008b20:	64 00 00 a8 	load_32 s3, (s4)
c0008b24:	63 04 00 05 	add_i s3, s3, 1
c0008b28:	64 00 00 88 	store_32 s3, (s4)
c0008b2c:	02 01 00 a8 	load_32 s8, (s2)
c0008b30:	63 10 00 0b 	shl s3, s3, 4
c0008b34:	63 00 04 c0 	or s3, s3, s8
c0008b38:	63 80 02 c0 	or s3, s3, s5
c0008b3c:	60 00 00 88 	store_32 s3, (s0)
c0008b40:	64 00 00 a8 	load_32 s3, (s4)
c0008b44:	63 04 00 05 	add_i s3, s3, 1
c0008b48:	64 00 00 88 	store_32 s3, (s4)
c0008b4c:	62 00 00 a8 	load_32 s3, (s2)
c0008b50:	63 10 00 03 	xor s3, s3, 4
c0008b54:	62 00 00 88 	store_32 s3, (s2)
c0008b58:	63 c0 0b 00 	or s3, s3, 752
c0008b5c:	60 00 00 88 	store_32 s3, (s0)
c0008b60:	64 00 00 a8 	load_32 s3, (s4)
c0008b64:	63 04 00 05 	add_i s3, s3, 1
c0008b68:	64 00 00 88 	store_32 s3, (s4)
c0008b6c:	02 01 00 a8 	load_32 s8, (s2)
c0008b70:	63 10 00 0b 	shl s3, s3, 4
c0008b74:	63 00 04 c0 	or s3, s3, s8
c0008b78:	63 80 02 c0 	or s3, s3, s5
c0008b7c:	60 00 00 88 	store_32 s3, (s0)
c0008b80:	64 00 00 a8 	load_32 s3, (s4)
c0008b84:	63 04 00 05 	add_i s3, s3, 1
c0008b88:	64 00 00 88 	store_32 s3, (s4)
c0008b8c:	62 00 00 a8 	load_32 s3, (s2)
c0008b90:	63 04 00 03 	xor s3, s3, 1
c0008b94:	62 00 00 88 	store_32 s3, (s2)
c0008b98:	63 80 03 c0 	or s3, s3, s7
c0008b9c:	60 00 00 88 	store_32 s3, (s0)
c0008ba0:	64 00 00 a8 	load_32 s3, (s4)
c0008ba4:	63 04 00 05 	add_i s3, s3, 1
c0008ba8:	64 00 00 88 	store_32 s3, (s4)
c0008bac:	e2 00 00 a8 	load_32 s7, (s2)
c0008bb0:	63 10 00 0b 	shl s3, s3, 4
c0008bb4:	63 80 03 c0 	or s3, s3, s7
c0008bb8:	63 80 02 c0 	or s3, s3, s5
c0008bbc:	60 00 00 88 	store_32 s3, (s0)
c0008bc0:	64 00 00 a8 	load_32 s3, (s4)
c0008bc4:	63 04 00 05 	add_i s3, s3, 1
c0008bc8:	64 00 00 88 	store_32 s3, (s4)
c0008bcc:	62 00 00 a8 	load_32 s3, (s2)
c0008bd0:	63 04 00 03 	xor s3, s3, 1
c0008bd4:	62 00 00 88 	store_32 s3, (s2)
c0008bd8:	21 80 01 c0 	or s1, s1, s3
c0008bdc:	21 00 03 c0 	or s1, s1, s6
c0008be0:	20 00 00 88 	store_32 s1, (s0)
c0008be4:	24 00 00 a8 	load_32 s1, (s4)
c0008be8:	21 04 00 05 	add_i s1, s1, 1
c0008bec:	24 00 00 88 	store_32 s1, (s4)
c0008bf0:	22 00 00 a8 	load_32 s1, (s2)
c0008bf4:	21 08 00 00 	or s1, s1, 2
c0008bf8:	20 00 00 88 	store_32 s1, (s0)
c0008bfc:	1f 00 00 f0 	ret

__udivsi3:
c0008c00:	80 00 00 0f 	move s4, 0
c0008c04:	40 80 80 c1 	cmplt_u s2, s0, s1
c0008c08:	22 02 00 f4 	bnz s2, 68 <done>
c0008c0c:	40 00 c0 c0 	clz s2, s0
c0008c10:	60 80 c0 c0 	clz s3, s1
c0008c14:	a3 00 61 c0 	sub_i s5, s3, s2
c0008c18:	21 80 b2 c0 	shl s1, s1, s5

divide_loop:
c0008c1c:	40 80 70 c1 	cmpge_u s2, s0, s1
c0008c20:	42 04 00 01 	and s2, s2, 1
c0008c24:	84 00 01 c0 	or s4, s4, s2
c0008c28:	42 7c 00 0b 	shl s2, s2, 31
c0008c2c:	42 7c 00 09 	ashr s2, s2, 31
c0008c30:	61 00 11 c0 	and s3, s1, s2
c0008c34:	00 80 61 c0 	sub_i s0, s0, s3
c0008c38:	a5 00 00 f2 	bz s5, 20 <done>
c0008c3c:	a5 04 00 06 	sub_i s5, s5, 1
c0008c40:	21 04 00 0a 	shr s1, s1, 1
c0008c44:	84 04 00 0b 	shl s4, s4, 1
c0008c48:	f5 ff ff f7 	b -44 <divide_loop>

done:
c0008c4c:	00 00 f2 c0 	move s0, s4
c0008c50:	1f 00 00 f0 	ret

__umodsi3:
c0008c54:	de 03 ff 05 	add_i sp, sp, -64
c0008c58:	1e f3 00 88 	store_32 s24, 60(sp)
c0008c5c:	3e e3 00 88 	store_32 s25, 56(sp)
c0008c60:	fe d3 00 88 	store_32 ra, 52(sp)
c0008c64:	00 83 f0 c0 	move s24, s1
c0008c68:	20 03 f0 c0 	move s25, s0
c0008c6c:	e5 ff ff f9 	call -108 <__udivsi3>
c0008c70:	00 00 7c c0 	mull_i s0, s0, s24
c0008c74:	fe d3 00 a8 	load_32 ra, 52(sp)
c0008c78:	19 00 60 c0 	sub_i s0, s25, s0
c0008c7c:	3e e3 00 a8 	load_32 s25, 56(sp)
c0008c80:	1e f3 00 a8 	load_32 s24, 60(sp)
c0008c84:	de 03 01 05 	add_i sp, sp, 64
c0008c88:	1f 00 00 f0 	ret
